
obj/kern/kernel:     file format elf32-i386

Disassembly of section .text:

00100000 <_start-0xc>:
.long CHECKSUM

.globl		start,_start
start: _start:
	movw	$0x1234,0x472			# warm boot BIOS flag
  100000:	02 b0 ad 1b 03 00    	add    0x31bad(%eax),%dh
  100006:	00 00                	add    %al,(%eax)
  100008:	fb                   	sti    
  100009:	4f                   	dec    %edi
  10000a:	52                   	push   %edx
  10000b:	e4 66                	in     $0x66,%al

0010000c <_start>:
  10000c:	66 c7 05 72 04 00 00 	movw   $0x1234,0x472
  100013:	34 12 

	# Clear the frame pointer register (EBP)
	# so that once we get into debugging C code,
	# stack backtraces will be terminated properly.
	movl	$0x0,%ebp			# nuke frame pointer
  100015:	bd 00 00 00 00       	mov    $0x0,%ebp

	# Leave a few words on the stack for the user trap frame
	movl	$(cpu_boot+4096-SIZEOF_STRUCT_TRAPFRAME),%esp
  10001a:	bc b4 ef 10 00       	mov    $0x10efb4,%esp

	# now to C code
	call	init
  10001f:	e8 04 00 00 00       	call   100028 <init>

00100024 <spin>:

	# Should never get here, but in case we do, just spin.
spin:	jmp	spin
  100024:	eb fe                	jmp    100024 <spin>
  100026:	90                   	nop    
  100027:	90                   	nop    

00100028 <init>:
// and later from boot/bootother.S on all other processors.
// As a rule, "init" functions in PIOS are called once on EACH processor.
void
init(void)
{
  100028:	55                   	push   %ebp
  100029:	89 e5                	mov    %esp,%ebp
  10002b:	53                   	push   %ebx
  10002c:	83 ec 64             	sub    $0x64,%esp
	extern char start[], edata[], end[];

	// Before anything else, complete the ELF loading process.
	// Clear all uninitialized global data (BSS) in our program,
	// ensuring that all static/global variables start out zero.
	if (cpu_onboot())
  10002f:	e8 25 04 00 00       	call   100459 <cpu_onboot>
  100034:	85 c0                	test   %eax,%eax
  100036:	74 28                	je     100060 <init+0x38>
		memset(edata, 0, end - edata);
  100038:	ba 08 20 18 00       	mov    $0x182008,%edx
  10003d:	b8 3f 8e 17 00       	mov    $0x178e3f,%eax
  100042:	89 d1                	mov    %edx,%ecx
  100044:	29 c1                	sub    %eax,%ecx
  100046:	89 c8                	mov    %ecx,%eax
  100048:	89 44 24 08          	mov    %eax,0x8(%esp)
  10004c:	c7 44 24 04 00 00 00 	movl   $0x0,0x4(%esp)
  100053:	00 
  100054:	c7 04 24 3f 8e 17 00 	movl   $0x178e3f,(%esp)
  10005b:	e8 a9 b7 00 00       	call   10b809 <memset>

	// Initialize the console.
	// Can't call cprintf until after we do this!
	cons_init();
  100060:	e8 d1 05 00 00       	call   100636 <cons_init>

  extern uint8_t _binary_obj_boot_bootother_start[],
    _binary_obj_boot_bootother_size[];

  uint8_t *code = (uint8_t*)lowmem_bootother_vec;
  100065:	c7 45 b0 00 10 00 00 	movl   $0x1000,0xffffffb0(%ebp)
  memmove(code, _binary_obj_boot_bootother_start, (uint32_t) _binary_obj_boot_bootother_size);
  10006c:	b8 6a 00 00 00       	mov    $0x6a,%eax
  100071:	89 44 24 08          	mov    %eax,0x8(%esp)
  100075:	c7 44 24 04 d5 8d 17 	movl   $0x178dd5,0x4(%esp)
  10007c:	00 
  10007d:	8b 45 b0             	mov    0xffffffb0(%ebp),%eax
  100080:	89 04 24             	mov    %eax,(%esp)
  100083:	e8 fa b7 00 00       	call   10b882 <memmove>

	// Lab 1: test cprintf and debug_trace
//	cprintf("1234 decimal is %o octal!\n", 1234);
//	debug_check();

	// Initialize and load the bootstrap CPU's GDT, TSS, and IDT.
	cpu_init();
  100088:	e8 1f 15 00 00       	call   1015ac <cpu_init>
	trap_init();
  10008d:	e8 80 2b 00 00       	call   102c12 <trap_init>

	// Physical memory detection/initialization.
	// Can't call mem_alloc until after we do this!
	mem_init();
  100092:	e8 d5 0c 00 00       	call   100d6c <mem_init>

	// Lab 2: check spinlock implementation
	if (cpu_onboot())
  100097:	e8 bd 03 00 00       	call   100459 <cpu_onboot>
  10009c:	85 c0                	test   %eax,%eax
  10009e:	74 05                	je     1000a5 <init+0x7d>
		spinlock_check();
  1000a0:	e8 ba 3b 00 00       	call   103c5f <spinlock_check>

	// Initialize the paged virtual memory system.
	pmap_init();
  1000a5:	e8 9a 5a 00 00       	call   105b44 <pmap_init>

	// Find and start other processors in a multiprocessor system
	mp_init();		// Find info about processors in system
  1000aa:	e8 b0 37 00 00       	call   10385f <mp_init>
	pic_init();		// setup the legacy PIC (mainly to disable it)
  1000af:	e8 78 a4 00 00       	call   10a52c <pic_init>
	ioapic_init();		// prepare to handle external device interrupts
  1000b4:	e8 9b aa 00 00       	call   10ab54 <ioapic_init>
	lapic_init();		// setup this CPU's local APIC
  1000b9:	e8 f1 a6 00 00       	call   10a7af <lapic_init>
	cpu_bootothers();	// Get other processors started
  1000be:	e8 17 17 00 00       	call   1017da <cpu_bootothers>
//	cprintf("CPU %d (%s) has booted\n", cpu_cur()->id,
//		cpu_onboot() ? "BP" : "AP");

	// Initialize the I/O system.
	file_init();		// Create root directory and console I/O files
  1000c3:	e8 94 98 00 00       	call   10995c <file_init>

	// Lab 4: uncomment this when you can handle IRQ_SERIAL and IRQ_KBD.
	//cons_intenable();	// Let the console start producing interrupts
  cons_intenable();
  1000c8:	e8 35 06 00 00       	call   100702 <cons_intenable>
	// Initialize the process management code.
	proc_init();
  1000cd:	e8 2a 40 00 00       	call   1040fc <proc_init>

	// Lab 1: change this so it enters user() in user mode,
	// running on the user_stack declared above,
	// instead of just calling user() directly.
//	user();

  //For LAB 3
if(!cpu_onboot())
  1000d2:	e8 82 03 00 00       	call   100459 <cpu_onboot>
  1000d7:	85 c0                	test   %eax,%eax
  1000d9:	75 05                	jne    1000e0 <init+0xb8>
proc_sched();
  1000db:	e8 cc 44 00 00       	call   1045ac <proc_sched>
  proc *root = proc_root = proc_alloc(NULL,0);
  1000e0:	c7 44 24 04 00 00 00 	movl   $0x0,0x4(%esp)
  1000e7:	00 
  1000e8:	c7 04 24 00 00 00 00 	movl   $0x0,(%esp)
  1000ef:	e8 aa 40 00 00       	call   10419e <proc_alloc>
  1000f4:	a3 b0 f4 17 00       	mov    %eax,0x17f4b0
  1000f9:	a1 b0 f4 17 00       	mov    0x17f4b0,%eax
  1000fe:	89 45 b4             	mov    %eax,0xffffffb4(%ebp)
  
  elfhdr *eh = (elfhdr *)ROOTEXE_START;
  100101:	c7 45 b8 29 3c 15 00 	movl   $0x153c29,0xffffffb8(%ebp)
  assert(eh->e_magic == ELF_MAGIC);
  100108:	8b 45 b8             	mov    0xffffffb8(%ebp),%eax
  10010b:	8b 00                	mov    (%eax),%eax
  10010d:	3d 7f 45 4c 46       	cmp    $0x464c457f,%eax
  100112:	74 24                	je     100138 <init+0x110>
  100114:	c7 44 24 0c e0 bc 10 	movl   $0x10bce0,0xc(%esp)
  10011b:	00 
  10011c:	c7 44 24 08 f9 bc 10 	movl   $0x10bcf9,0x8(%esp)
  100123:	00 
  100124:	c7 44 24 04 75 00 00 	movl   $0x75,0x4(%esp)
  10012b:	00 
  10012c:	c7 04 24 0e bd 10 00 	movl   $0x10bd0e,(%esp)
  100133:	e8 00 08 00 00       	call   100938 <debug_panic>

  proghdr *ph = (proghdr *) ((void *) eh + eh->e_phoff);
  100138:	8b 45 b8             	mov    0xffffffb8(%ebp),%eax
  10013b:	8b 40 1c             	mov    0x1c(%eax),%eax
  10013e:	03 45 b8             	add    0xffffffb8(%ebp),%eax
  100141:	89 45 bc             	mov    %eax,0xffffffbc(%ebp)
  proghdr *eph = ph + eh->e_phnum;
  100144:	8b 45 b8             	mov    0xffffffb8(%ebp),%eax
  100147:	0f b7 40 2c          	movzwl 0x2c(%eax),%eax
  10014b:	0f b7 c0             	movzwl %ax,%eax
  10014e:	c1 e0 05             	shl    $0x5,%eax
  100151:	03 45 bc             	add    0xffffffbc(%ebp),%eax
  100154:	89 45 c0             	mov    %eax,0xffffffc0(%ebp)

  for (; ph < eph; ph++){
  100157:	e9 1c 02 00 00       	jmp    100378 <init+0x350>
    if (ph->p_type != ELF_PROG_LOAD)
  10015c:	8b 45 bc             	mov    0xffffffbc(%ebp),%eax
  10015f:	8b 00                	mov    (%eax),%eax
  100161:	83 f8 01             	cmp    $0x1,%eax
  100164:	0f 85 0a 02 00 00    	jne    100374 <init+0x34c>
      continue;

    void *fa = (void *) eh + ROUNDDOWN(ph->p_offset, PAGESIZE);
  10016a:	8b 45 bc             	mov    0xffffffbc(%ebp),%eax
  10016d:	8b 40 04             	mov    0x4(%eax),%eax
  100170:	89 45 e0             	mov    %eax,0xffffffe0(%ebp)
  100173:	8b 45 e0             	mov    0xffffffe0(%ebp),%eax
  100176:	25 00 f0 ff ff       	and    $0xfffff000,%eax
  10017b:	03 45 b8             	add    0xffffffb8(%ebp),%eax
  10017e:	89 45 cc             	mov    %eax,0xffffffcc(%ebp)
    uint32_t va = ROUNDDOWN(ph->p_va, PAGESIZE);
  100181:	8b 45 bc             	mov    0xffffffbc(%ebp),%eax
  100184:	8b 40 08             	mov    0x8(%eax),%eax
  100187:	89 45 e4             	mov    %eax,0xffffffe4(%ebp)
  10018a:	8b 45 e4             	mov    0xffffffe4(%ebp),%eax
  10018d:	25 00 f0 ff ff       	and    $0xfffff000,%eax
  100192:	89 45 d0             	mov    %eax,0xffffffd0(%ebp)
    uint32_t zva = ph->p_va + ph->p_filesz;
  100195:	8b 45 bc             	mov    0xffffffbc(%ebp),%eax
  100198:	8b 50 08             	mov    0x8(%eax),%edx
  10019b:	8b 45 bc             	mov    0xffffffbc(%ebp),%eax
  10019e:	8b 40 10             	mov    0x10(%eax),%eax
  1001a1:	8d 04 02             	lea    (%edx,%eax,1),%eax
  1001a4:	89 45 d4             	mov    %eax,0xffffffd4(%ebp)
    uint32_t eva = ROUNDUP(ph->p_va + ph->p_memsz, PAGESIZE);
  1001a7:	c7 45 e8 00 10 00 00 	movl   $0x1000,0xffffffe8(%ebp)
  1001ae:	8b 45 bc             	mov    0xffffffbc(%ebp),%eax
  1001b1:	8b 50 08             	mov    0x8(%eax),%edx
  1001b4:	8b 45 bc             	mov    0xffffffbc(%ebp),%eax
  1001b7:	8b 40 14             	mov    0x14(%eax),%eax
  1001ba:	8d 04 02             	lea    (%edx,%eax,1),%eax
  1001bd:	03 45 e8             	add    0xffffffe8(%ebp),%eax
  1001c0:	83 e8 01             	sub    $0x1,%eax
  1001c3:	89 45 ec             	mov    %eax,0xffffffec(%ebp)
  1001c6:	8b 45 ec             	mov    0xffffffec(%ebp),%eax
  1001c9:	ba 00 00 00 00       	mov    $0x0,%edx
  1001ce:	f7 75 e8             	divl   0xffffffe8(%ebp)
  1001d1:	8b 45 ec             	mov    0xffffffec(%ebp),%eax
  1001d4:	29 d0                	sub    %edx,%eax
  1001d6:	89 45 d8             	mov    %eax,0xffffffd8(%ebp)

    uint32_t perm = SYS_READ | PTE_P | PTE_U;
  1001d9:	c7 45 dc 05 02 00 00 	movl   $0x205,0xffffffdc(%ebp)
    if(ph->p_flags & ELF_PROG_FLAG_WRITE)
  1001e0:	8b 45 bc             	mov    0xffffffbc(%ebp),%eax
  1001e3:	8b 40 18             	mov    0x18(%eax),%eax
  1001e6:	83 e0 02             	and    $0x2,%eax
  1001e9:	85 c0                	test   %eax,%eax
  1001eb:	0f 84 77 01 00 00    	je     100368 <init+0x340>
    perm |= SYS_WRITE | PTE_W;
  1001f1:	81 4d dc 02 04 00 00 	orl    $0x402,0xffffffdc(%ebp)

    for (; va < eva; va += PAGESIZE, fa += PAGESIZE) {
  1001f8:	e9 6b 01 00 00       	jmp    100368 <init+0x340>
    pageinfo *pi = mem_alloc(); assert(pi != NULL);
  1001fd:	e8 19 0e 00 00       	call   10101b <mem_alloc>
  100202:	89 45 f0             	mov    %eax,0xfffffff0(%ebp)
  100205:	83 7d f0 00          	cmpl   $0x0,0xfffffff0(%ebp)
  100209:	75 24                	jne    10022f <init+0x207>
  10020b:	c7 44 24 0c 1a bd 10 	movl   $0x10bd1a,0xc(%esp)
  100212:	00 
  100213:	c7 44 24 08 f9 bc 10 	movl   $0x10bcf9,0x8(%esp)
  10021a:	00 
  10021b:	c7 44 24 04 88 00 00 	movl   $0x88,0x4(%esp)
  100222:	00 
  100223:	c7 04 24 0e bd 10 00 	movl   $0x10bd0e,(%esp)
  10022a:	e8 09 07 00 00       	call   100938 <debug_panic>
      if(va < ROUNDDOWN(zva, PAGESIZE))
  10022f:	8b 45 d4             	mov    0xffffffd4(%ebp),%eax
  100232:	89 45 f8             	mov    %eax,0xfffffff8(%ebp)
  100235:	8b 45 f8             	mov    0xfffffff8(%ebp),%eax
  100238:	25 00 f0 ff ff       	and    $0xfffff000,%eax
  10023d:	3b 45 d0             	cmp    0xffffffd0(%ebp),%eax
  100240:	76 2f                	jbe    100271 <init+0x249>
        memmove(mem_pi2ptr(pi), fa, PAGESIZE);
  100242:	8b 55 f0             	mov    0xfffffff0(%ebp),%edx
  100245:	a1 dc ed 17 00       	mov    0x17eddc,%eax
  10024a:	89 d3                	mov    %edx,%ebx
  10024c:	29 c3                	sub    %eax,%ebx
  10024e:	89 d8                	mov    %ebx,%eax
  100250:	c1 e0 09             	shl    $0x9,%eax
  100253:	89 c2                	mov    %eax,%edx
  100255:	c7 44 24 08 00 10 00 	movl   $0x1000,0x8(%esp)
  10025c:	00 
  10025d:	8b 45 cc             	mov    0xffffffcc(%ebp),%eax
  100260:	89 44 24 04          	mov    %eax,0x4(%esp)
  100264:	89 14 24             	mov    %edx,(%esp)
  100267:	e8 16 b6 00 00       	call   10b882 <memmove>
  10026c:	e9 96 00 00 00       	jmp    100307 <init+0x2df>
      else if (va < zva && ph->p_filesz){
  100271:	8b 45 d0             	mov    0xffffffd0(%ebp),%eax
  100274:	3b 45 d4             	cmp    0xffffffd4(%ebp),%eax
  100277:	73 65                	jae    1002de <init+0x2b6>
  100279:	8b 45 bc             	mov    0xffffffbc(%ebp),%eax
  10027c:	8b 40 10             	mov    0x10(%eax),%eax
  10027f:	85 c0                	test   %eax,%eax
  100281:	74 5b                	je     1002de <init+0x2b6>
      memset(mem_pi2ptr(pi),0, PAGESIZE);
  100283:	8b 55 f0             	mov    0xfffffff0(%ebp),%edx
  100286:	a1 dc ed 17 00       	mov    0x17eddc,%eax
  10028b:	89 d1                	mov    %edx,%ecx
  10028d:	29 c1                	sub    %eax,%ecx
  10028f:	89 c8                	mov    %ecx,%eax
  100291:	c1 e0 09             	shl    $0x9,%eax
  100294:	c7 44 24 08 00 10 00 	movl   $0x1000,0x8(%esp)
  10029b:	00 
  10029c:	c7 44 24 04 00 00 00 	movl   $0x0,0x4(%esp)
  1002a3:	00 
  1002a4:	89 04 24             	mov    %eax,(%esp)
  1002a7:	e8 5d b5 00 00       	call   10b809 <memset>
      memmove(mem_pi2ptr(pi), fa, zva-va);
  1002ac:	8b 55 d0             	mov    0xffffffd0(%ebp),%edx
  1002af:	8b 45 d4             	mov    0xffffffd4(%ebp),%eax
  1002b2:	89 c1                	mov    %eax,%ecx
  1002b4:	29 d1                	sub    %edx,%ecx
  1002b6:	8b 55 f0             	mov    0xfffffff0(%ebp),%edx
  1002b9:	a1 dc ed 17 00       	mov    0x17eddc,%eax
  1002be:	89 d3                	mov    %edx,%ebx
  1002c0:	29 c3                	sub    %eax,%ebx
  1002c2:	89 d8                	mov    %ebx,%eax
  1002c4:	c1 e0 09             	shl    $0x9,%eax
  1002c7:	89 c2                	mov    %eax,%edx
  1002c9:	89 4c 24 08          	mov    %ecx,0x8(%esp)
  1002cd:	8b 45 cc             	mov    0xffffffcc(%ebp),%eax
  1002d0:	89 44 24 04          	mov    %eax,0x4(%esp)
  1002d4:	89 14 24             	mov    %edx,(%esp)
  1002d7:	e8 a6 b5 00 00       	call   10b882 <memmove>
  1002dc:	eb 29                	jmp    100307 <init+0x2df>
      } else
        memset(mem_pi2ptr(pi), 0, PAGESIZE);
  1002de:	8b 55 f0             	mov    0xfffffff0(%ebp),%edx
  1002e1:	a1 dc ed 17 00       	mov    0x17eddc,%eax
  1002e6:	89 d1                	mov    %edx,%ecx
  1002e8:	29 c1                	sub    %eax,%ecx
  1002ea:	89 c8                	mov    %ecx,%eax
  1002ec:	c1 e0 09             	shl    $0x9,%eax
  1002ef:	c7 44 24 08 00 10 00 	movl   $0x1000,0x8(%esp)
  1002f6:	00 
  1002f7:	c7 44 24 04 00 00 00 	movl   $0x0,0x4(%esp)
  1002fe:	00 
  1002ff:	89 04 24             	mov    %eax,(%esp)
  100302:	e8 02 b5 00 00       	call   10b809 <memset>

      pte_t *pte = pmap_insert(root->pdir, pi, va, perm);
  100307:	8b 55 dc             	mov    0xffffffdc(%ebp),%edx
  10030a:	8b 45 b4             	mov    0xffffffb4(%ebp),%eax
  10030d:	8b 88 a0 06 00 00    	mov    0x6a0(%eax),%ecx
  100313:	89 54 24 0c          	mov    %edx,0xc(%esp)
  100317:	8b 45 d0             	mov    0xffffffd0(%ebp),%eax
  10031a:	89 44 24 08          	mov    %eax,0x8(%esp)
  10031e:	8b 45 f0             	mov    0xfffffff0(%ebp),%eax
  100321:	89 44 24 04          	mov    %eax,0x4(%esp)
  100325:	89 0c 24             	mov    %ecx,(%esp)
  100328:	e8 6e 63 00 00       	call   10669b <pmap_insert>
  10032d:	89 45 f4             	mov    %eax,0xfffffff4(%ebp)
      assert(pte != NULL);
  100330:	83 7d f4 00          	cmpl   $0x0,0xfffffff4(%ebp)
  100334:	75 24                	jne    10035a <init+0x332>
  100336:	c7 44 24 0c 25 bd 10 	movl   $0x10bd25,0xc(%esp)
  10033d:	00 
  10033e:	c7 44 24 08 f9 bc 10 	movl   $0x10bcf9,0x8(%esp)
  100345:	00 
  100346:	c7 44 24 04 92 00 00 	movl   $0x92,0x4(%esp)
  10034d:	00 
  10034e:	c7 04 24 0e bd 10 00 	movl   $0x10bd0e,(%esp)
  100355:	e8 de 05 00 00       	call   100938 <debug_panic>
  10035a:	81 45 d0 00 10 00 00 	addl   $0x1000,0xffffffd0(%ebp)
  100361:	81 45 cc 00 10 00 00 	addl   $0x1000,0xffffffcc(%ebp)
  100368:	8b 45 d0             	mov    0xffffffd0(%ebp),%eax
  10036b:	3b 45 d8             	cmp    0xffffffd8(%ebp),%eax
  10036e:	0f 82 89 fe ff ff    	jb     1001fd <init+0x1d5>
  100374:	83 45 bc 20          	addl   $0x20,0xffffffbc(%ebp)
  100378:	8b 45 bc             	mov    0xffffffbc(%ebp),%eax
  10037b:	3b 45 c0             	cmp    0xffffffc0(%ebp),%eax
  10037e:	0f 82 d8 fd ff ff    	jb     10015c <init+0x134>
      }
      }

      root->sv.tf.eip = eh->e_entry;
  100384:	8b 45 b8             	mov    0xffffffb8(%ebp),%eax
  100387:	8b 50 18             	mov    0x18(%eax),%edx
  10038a:	8b 45 b4             	mov    0xffffffb4(%ebp),%eax
  10038d:	89 90 88 04 00 00    	mov    %edx,0x488(%eax)
      root->sv.tf.eflags |= FL_IF;
  100393:	8b 45 b4             	mov    0xffffffb4(%ebp),%eax
  100396:	8b 80 90 04 00 00    	mov    0x490(%eax),%eax
  10039c:	89 c2                	mov    %eax,%edx
  10039e:	80 ce 02             	or     $0x2,%dh
  1003a1:	8b 45 b4             	mov    0xffffffb4(%ebp),%eax
  1003a4:	89 90 90 04 00 00    	mov    %edx,0x490(%eax)

      pageinfo *pi = mem_alloc(); assert(pi != NULL);
  1003aa:	e8 6c 0c 00 00       	call   10101b <mem_alloc>
  1003af:	89 45 c4             	mov    %eax,0xffffffc4(%ebp)
  1003b2:	83 7d c4 00          	cmpl   $0x0,0xffffffc4(%ebp)
  1003b6:	75 24                	jne    1003dc <init+0x3b4>
  1003b8:	c7 44 24 0c 1a bd 10 	movl   $0x10bd1a,0xc(%esp)
  1003bf:	00 
  1003c0:	c7 44 24 08 f9 bc 10 	movl   $0x10bcf9,0x8(%esp)
  1003c7:	00 
  1003c8:	c7 44 24 04 99 00 00 	movl   $0x99,0x4(%esp)
  1003cf:	00 
  1003d0:	c7 04 24 0e bd 10 00 	movl   $0x10bd0e,(%esp)
  1003d7:	e8 5c 05 00 00       	call   100938 <debug_panic>
      pte_t *pte = pmap_insert(root->pdir, pi, VM_STACKHI-PAGESIZE,
        SYS_READ | SYS_WRITE | PTE_P | PTE_U | PTE_W);
  1003dc:	8b 45 b4             	mov    0xffffffb4(%ebp),%eax
  1003df:	8b 90 a0 06 00 00    	mov    0x6a0(%eax),%edx
  1003e5:	c7 44 24 0c 07 06 00 	movl   $0x607,0xc(%esp)
  1003ec:	00 
  1003ed:	c7 44 24 08 00 f0 ff 	movl   $0xeffff000,0x8(%esp)
  1003f4:	ef 
  1003f5:	8b 45 c4             	mov    0xffffffc4(%ebp),%eax
  1003f8:	89 44 24 04          	mov    %eax,0x4(%esp)
  1003fc:	89 14 24             	mov    %edx,(%esp)
  1003ff:	e8 97 62 00 00       	call   10669b <pmap_insert>
  100404:	89 45 c8             	mov    %eax,0xffffffc8(%ebp)
      assert(pte != NULL);
  100407:	83 7d c8 00          	cmpl   $0x0,0xffffffc8(%ebp)
  10040b:	75 24                	jne    100431 <init+0x409>
  10040d:	c7 44 24 0c 25 bd 10 	movl   $0x10bd25,0xc(%esp)
  100414:	00 
  100415:	c7 44 24 08 f9 bc 10 	movl   $0x10bcf9,0x8(%esp)
  10041c:	00 
  10041d:	c7 44 24 04 9c 00 00 	movl   $0x9c,0x4(%esp)
  100424:	00 
  100425:	c7 04 24 0e bd 10 00 	movl   $0x10bd0e,(%esp)
  10042c:	e8 07 05 00 00       	call   100938 <debug_panic>
      root->sv.tf.esp = VM_STACKHI;
  100431:	8b 45 b4             	mov    0xffffffb4(%ebp),%eax
  100434:	c7 80 94 04 00 00 00 	movl   $0xf0000000,0x494(%eax)
  10043b:	00 00 f0 

      file_initroot(root);
  10043e:	8b 45 b4             	mov    0xffffffb4(%ebp),%eax
  100441:	89 04 24             	mov    %eax,(%esp)
  100444:	e8 ab 95 00 00       	call   1099f4 <file_initroot>
      proc_ready(root);
  100449:	8b 45 b4             	mov    0xffffffb4(%ebp),%eax
  10044c:	89 04 24             	mov    %eax,(%esp)
  10044f:	e8 94 3f 00 00       	call   1043e8 <proc_ready>
      proc_sched();
  100454:	e8 53 41 00 00       	call   1045ac <proc_sched>

00100459 <cpu_onboot>:
}

// Returns true if we're running on the bootstrap CPU.
static inline int
cpu_onboot() {
  100459:	55                   	push   %ebp
  10045a:	89 e5                	mov    %esp,%ebp
  10045c:	83 ec 08             	sub    $0x8,%esp
	return cpu_cur() == &cpu_boot;
  10045f:	e8 0d 00 00 00       	call   100471 <cpu_cur>
  100464:	3d 00 e0 10 00       	cmp    $0x10e000,%eax
  100469:	0f 94 c0             	sete   %al
  10046c:	0f b6 c0             	movzbl %al,%eax
}
  10046f:	c9                   	leave  
  100470:	c3                   	ret    

00100471 <cpu_cur>:
  100471:	55                   	push   %ebp
  100472:	89 e5                	mov    %esp,%ebp
  100474:	83 ec 28             	sub    $0x28,%esp
static gcc_inline uint32_t
read_esp(void)
{
        uint32_t esp;
        __asm __volatile("movl %%esp,%0" : "=rm" (esp));
  100477:	89 65 fc             	mov    %esp,0xfffffffc(%ebp)
        return esp;
  10047a:	8b 45 fc             	mov    0xfffffffc(%ebp),%eax
// Find the CPU struct representing the current CPU.
// It always resides at the bottom of the page containing the CPU's stack.
static inline cpu *
cpu_cur() {
	cpu *c = (cpu*)ROUNDDOWN(read_esp(), PAGESIZE);
  10047d:	89 45 f8             	mov    %eax,0xfffffff8(%ebp)
  100480:	8b 45 f8             	mov    0xfffffff8(%ebp),%eax
  100483:	25 00 f0 ff ff       	and    $0xfffff000,%eax
  100488:	89 45 f4             	mov    %eax,0xfffffff4(%ebp)
	assert(c->magic == CPU_MAGIC);
  10048b:	8b 45 f4             	mov    0xfffffff4(%ebp),%eax
  10048e:	8b 80 b8 00 00 00    	mov    0xb8(%eax),%eax
  100494:	3d 32 54 76 98       	cmp    $0x98765432,%eax
  100499:	74 24                	je     1004bf <cpu_cur+0x4e>
  10049b:	c7 44 24 0c 31 bd 10 	movl   $0x10bd31,0xc(%esp)
  1004a2:	00 
  1004a3:	c7 44 24 08 f9 bc 10 	movl   $0x10bcf9,0x8(%esp)
  1004aa:	00 
  1004ab:	c7 44 24 04 5c 00 00 	movl   $0x5c,0x4(%esp)
  1004b2:	00 
  1004b3:	c7 04 24 47 bd 10 00 	movl   $0x10bd47,(%esp)
  1004ba:	e8 79 04 00 00       	call   100938 <debug_panic>
	return c;
  1004bf:	8b 45 f4             	mov    0xfffffff4(%ebp),%eax
}
  1004c2:	c9                   	leave  
  1004c3:	c3                   	ret    

001004c4 <user>:


     // user();
}

// This is the first function that gets run in user mode (ring 3).
// It acts as PIOS's "root process",
// of which all other processes are descendants.
void
user()
{
  1004c4:	55                   	push   %ebp
  1004c5:	89 e5                	mov    %esp,%ebp
  1004c7:	83 ec 28             	sub    $0x28,%esp
	cprintf("in user()\n");
  1004ca:	c7 04 24 54 bd 10 00 	movl   $0x10bd54,(%esp)
  1004d1:	e8 af af 00 00       	call   10b485 <cprintf>
static gcc_inline uint32_t
read_esp(void)
{
        uint32_t esp;
        __asm __volatile("movl %%esp,%0" : "=rm" (esp));
  1004d6:	89 65 f8             	mov    %esp,0xfffffff8(%ebp)
        return esp;
  1004d9:	8b 45 f8             	mov    0xfffffff8(%ebp),%eax
  1004dc:	89 c2                	mov    %eax,%edx
	assert(read_esp() > (uint32_t) &user_stack[0]);
  1004de:	b8 00 90 17 00       	mov    $0x179000,%eax
  1004e3:	39 c2                	cmp    %eax,%edx
  1004e5:	77 24                	ja     10050b <user+0x47>
  1004e7:	c7 44 24 0c 60 bd 10 	movl   $0x10bd60,0xc(%esp)
  1004ee:	00 
  1004ef:	c7 44 24 08 f9 bc 10 	movl   $0x10bcf9,0x8(%esp)
  1004f6:	00 
  1004f7:	c7 44 24 04 ae 00 00 	movl   $0xae,0x4(%esp)
  1004fe:	00 
  1004ff:	c7 04 24 0e bd 10 00 	movl   $0x10bd0e,(%esp)
  100506:	e8 2d 04 00 00       	call   100938 <debug_panic>
static gcc_inline uint32_t
read_esp(void)
{
        uint32_t esp;
        __asm __volatile("movl %%esp,%0" : "=rm" (esp));
  10050b:	89 65 fc             	mov    %esp,0xfffffffc(%ebp)
        return esp;
  10050e:	8b 45 fc             	mov    0xfffffffc(%ebp),%eax
  100511:	89 c2                	mov    %eax,%edx
	assert(read_esp() < (uint32_t) &user_stack[sizeof(user_stack)]);
  100513:	b8 00 a0 17 00       	mov    $0x17a000,%eax
  100518:	39 c2                	cmp    %eax,%edx
  10051a:	72 24                	jb     100540 <user+0x7c>
  10051c:	c7 44 24 0c 88 bd 10 	movl   $0x10bd88,0xc(%esp)
  100523:	00 
  100524:	c7 44 24 08 f9 bc 10 	movl   $0x10bcf9,0x8(%esp)
  10052b:	00 
  10052c:	c7 44 24 04 af 00 00 	movl   $0xaf,0x4(%esp)
  100533:	00 
  100534:	c7 04 24 0e bd 10 00 	movl   $0x10bd0e,(%esp)
  10053b:	e8 f8 03 00 00       	call   100938 <debug_panic>

	// Check the system call and process scheduling code.
//  cprintf("proc_check");
//	proc_check();

	// Check that we're in user mode and can handle traps from there.
//	trap_check_user();

	done();
  100540:	e8 00 00 00 00       	call   100545 <done>

00100545 <done>:
}

// This is a function that we call when the kernel is "done" -
// it just puts the processor into an infinite loop.
// We make this a function so that we can set a breakpoints on it.
// Our grade scripts use this breakpoint to know when to stop QEMU.
void gcc_noreturn
done()
{
  100545:	55                   	push   %ebp
  100546:	89 e5                	mov    %esp,%ebp
	while (1)
		;	// just spin
  100548:	eb fe                	jmp    100548 <done+0x3>
  10054a:	90                   	nop    
  10054b:	90                   	nop    

0010054c <cons_intr>:
// called by device interrupt routines to feed input characters
// into the circular console input buffer.
void
cons_intr(int (*proc)(void))
{
  10054c:	55                   	push   %ebp
  10054d:	89 e5                	mov    %esp,%ebp
  10054f:	83 ec 18             	sub    $0x18,%esp
	int c;

	spinlock_acquire(&cons_lock);
  100552:	c7 04 24 40 ed 17 00 	movl   $0x17ed40,(%esp)
  100559:	e8 2c 35 00 00       	call   103a8a <spinlock_acquire>
	while ((c = (*proc)()) != -1) {
  10055e:	eb 33                	jmp    100593 <cons_intr+0x47>
		if (c == 0)
  100560:	83 7d fc 00          	cmpl   $0x0,0xfffffffc(%ebp)
  100564:	74 2d                	je     100593 <cons_intr+0x47>
			continue;
		cons.buf[cons.wpos++] = c;
  100566:	8b 15 04 a2 17 00    	mov    0x17a204,%edx
  10056c:	8b 45 fc             	mov    0xfffffffc(%ebp),%eax
  10056f:	88 82 00 a0 17 00    	mov    %al,0x17a000(%edx)
  100575:	8d 42 01             	lea    0x1(%edx),%eax
  100578:	a3 04 a2 17 00       	mov    %eax,0x17a204
		if (cons.wpos == CONSBUFSIZE)
  10057d:	a1 04 a2 17 00       	mov    0x17a204,%eax
  100582:	3d 00 02 00 00       	cmp    $0x200,%eax
  100587:	75 0a                	jne    100593 <cons_intr+0x47>
			cons.wpos = 0;
  100589:	c7 05 04 a2 17 00 00 	movl   $0x0,0x17a204
  100590:	00 00 00 
  100593:	8b 45 08             	mov    0x8(%ebp),%eax
  100596:	ff d0                	call   *%eax
  100598:	89 45 fc             	mov    %eax,0xfffffffc(%ebp)
  10059b:	83 7d fc ff          	cmpl   $0xffffffff,0xfffffffc(%ebp)
  10059f:	75 bf                	jne    100560 <cons_intr+0x14>
	}
	spinlock_release(&cons_lock);
  1005a1:	c7 04 24 40 ed 17 00 	movl   $0x17ed40,(%esp)
  1005a8:	e8 d8 35 00 00       	call   103b85 <spinlock_release>

	// Wake the root process
	file_wakeroot();
  1005ad:	e8 6f 98 00 00       	call   109e21 <file_wakeroot>
}
  1005b2:	c9                   	leave  
  1005b3:	c3                   	ret    

001005b4 <cons_getc>:

// return the next input character from the console, or 0 if none waiting
int
cons_getc(void)
{
  1005b4:	55                   	push   %ebp
  1005b5:	89 e5                	mov    %esp,%ebp
  1005b7:	83 ec 18             	sub    $0x18,%esp
	int c;

	// poll for any pending input characters,
	// so that this function works even when interrupts are disabled
	// (e.g., when called from the kernel monitor).
	serial_intr();
  1005ba:	e8 fd 9d 00 00       	call   10a3bc <serial_intr>
	kbd_intr();
  1005bf:	e8 30 9d 00 00       	call   10a2f4 <kbd_intr>

	// grab the next character from the input buffer.
	if (cons.rpos != cons.wpos) {
  1005c4:	8b 15 00 a2 17 00    	mov    0x17a200,%edx
  1005ca:	a1 04 a2 17 00       	mov    0x17a204,%eax
  1005cf:	39 c2                	cmp    %eax,%edx
  1005d1:	74 39                	je     10060c <cons_getc+0x58>
		c = cons.buf[cons.rpos++];
  1005d3:	8b 15 00 a2 17 00    	mov    0x17a200,%edx
  1005d9:	0f b6 82 00 a0 17 00 	movzbl 0x17a000(%edx),%eax
  1005e0:	0f b6 c0             	movzbl %al,%eax
  1005e3:	89 45 fc             	mov    %eax,0xfffffffc(%ebp)
  1005e6:	8d 42 01             	lea    0x1(%edx),%eax
  1005e9:	a3 00 a2 17 00       	mov    %eax,0x17a200
		if (cons.rpos == CONSBUFSIZE)
  1005ee:	a1 00 a2 17 00       	mov    0x17a200,%eax
  1005f3:	3d 00 02 00 00       	cmp    $0x200,%eax
  1005f8:	75 0a                	jne    100604 <cons_getc+0x50>
			cons.rpos = 0;
  1005fa:	c7 05 00 a2 17 00 00 	movl   $0x0,0x17a200
  100601:	00 00 00 
		return c;
  100604:	8b 45 fc             	mov    0xfffffffc(%ebp),%eax
  100607:	89 45 ec             	mov    %eax,0xffffffec(%ebp)
  10060a:	eb 07                	jmp    100613 <cons_getc+0x5f>
	}
	return 0;
  10060c:	c7 45 ec 00 00 00 00 	movl   $0x0,0xffffffec(%ebp)
  100613:	8b 45 ec             	mov    0xffffffec(%ebp),%eax
}
  100616:	c9                   	leave  
  100617:	c3                   	ret    

00100618 <cons_putc>:

// output a character to the console
static void
cons_putc(int c)
{
  100618:	55                   	push   %ebp
  100619:	89 e5                	mov    %esp,%ebp
  10061b:	83 ec 08             	sub    $0x8,%esp
	serial_putc(c);
  10061e:	8b 45 08             	mov    0x8(%ebp),%eax
  100621:	89 04 24             	mov    %eax,(%esp)
  100624:	e8 b0 9d 00 00       	call   10a3d9 <serial_putc>
	video_putc(c);
  100629:	8b 45 08             	mov    0x8(%ebp),%eax
  10062c:	89 04 24             	mov    %eax,(%esp)
  10062f:	e8 fc 98 00 00       	call   109f30 <video_putc>
}
  100634:	c9                   	leave  
  100635:	c3                   	ret    

00100636 <cons_init>:

// initialize the console devices
void
cons_init(void)
{
  100636:	55                   	push   %ebp
  100637:	89 e5                	mov    %esp,%ebp
  100639:	83 ec 18             	sub    $0x18,%esp
	if (!cpu_onboot())	// only do once, on the boot CPU
  10063c:	e8 56 00 00 00       	call   100697 <cpu_onboot>
  100641:	85 c0                	test   %eax,%eax
  100643:	74 50                	je     100695 <cons_init+0x5f>
		return;

	spinlock_init(&cons_lock);
  100645:	c7 44 24 08 6d 00 00 	movl   $0x6d,0x8(%esp)
  10064c:	00 
  10064d:	c7 44 24 04 c0 bd 10 	movl   $0x10bdc0,0x4(%esp)
  100654:	00 
  100655:	c7 04 24 40 ed 17 00 	movl   $0x17ed40,(%esp)
  10065c:	e8 ff 33 00 00       	call   103a60 <spinlock_init_>
	video_init();
  100661:	e8 02 98 00 00       	call   109e68 <video_init>
	kbd_init();
  100666:	e8 9d 9c 00 00       	call   10a308 <kbd_init>
	serial_init();
  10066b:	e8 c9 9d 00 00       	call   10a439 <serial_init>

	if (!serial_exists)
  100670:	a1 00 20 18 00       	mov    0x182000,%eax
  100675:	85 c0                	test   %eax,%eax
  100677:	75 1c                	jne    100695 <cons_init+0x5f>
		warn("Serial port does not exist!\n");
  100679:	c7 44 24 08 cc bd 10 	movl   $0x10bdcc,0x8(%esp)
  100680:	00 
  100681:	c7 44 24 04 73 00 00 	movl   $0x73,0x4(%esp)
  100688:	00 
  100689:	c7 04 24 c0 bd 10 00 	movl   $0x10bdc0,(%esp)
  100690:	e8 61 03 00 00       	call   1009f6 <debug_warn>
}
  100695:	c9                   	leave  
  100696:	c3                   	ret    

00100697 <cpu_onboot>:
}

// Returns true if we're running on the bootstrap CPU.
static inline int
cpu_onboot() {
  100697:	55                   	push   %ebp
  100698:	89 e5                	mov    %esp,%ebp
  10069a:	83 ec 08             	sub    $0x8,%esp
	return cpu_cur() == &cpu_boot;
  10069d:	e8 0d 00 00 00       	call   1006af <cpu_cur>
  1006a2:	3d 00 e0 10 00       	cmp    $0x10e000,%eax
  1006a7:	0f 94 c0             	sete   %al
  1006aa:	0f b6 c0             	movzbl %al,%eax
}
  1006ad:	c9                   	leave  
  1006ae:	c3                   	ret    

001006af <cpu_cur>:
  1006af:	55                   	push   %ebp
  1006b0:	89 e5                	mov    %esp,%ebp
  1006b2:	83 ec 28             	sub    $0x28,%esp
static gcc_inline uint32_t
read_esp(void)
{
        uint32_t esp;
        __asm __volatile("movl %%esp,%0" : "=rm" (esp));
  1006b5:	89 65 fc             	mov    %esp,0xfffffffc(%ebp)
        return esp;
  1006b8:	8b 45 fc             	mov    0xfffffffc(%ebp),%eax
// Find the CPU struct representing the current CPU.
// It always resides at the bottom of the page containing the CPU's stack.
static inline cpu *
cpu_cur() {
	cpu *c = (cpu*)ROUNDDOWN(read_esp(), PAGESIZE);
  1006bb:	89 45 f8             	mov    %eax,0xfffffff8(%ebp)
  1006be:	8b 45 f8             	mov    0xfffffff8(%ebp),%eax
  1006c1:	25 00 f0 ff ff       	and    $0xfffff000,%eax
  1006c6:	89 45 f4             	mov    %eax,0xfffffff4(%ebp)
	assert(c->magic == CPU_MAGIC);
  1006c9:	8b 45 f4             	mov    0xfffffff4(%ebp),%eax
  1006cc:	8b 80 b8 00 00 00    	mov    0xb8(%eax),%eax
  1006d2:	3d 32 54 76 98       	cmp    $0x98765432,%eax
  1006d7:	74 24                	je     1006fd <cpu_cur+0x4e>
  1006d9:	c7 44 24 0c e9 bd 10 	movl   $0x10bde9,0xc(%esp)
  1006e0:	00 
  1006e1:	c7 44 24 08 ff bd 10 	movl   $0x10bdff,0x8(%esp)
  1006e8:	00 
  1006e9:	c7 44 24 04 5c 00 00 	movl   $0x5c,0x4(%esp)
  1006f0:	00 
  1006f1:	c7 04 24 14 be 10 00 	movl   $0x10be14,(%esp)
  1006f8:	e8 3b 02 00 00       	call   100938 <debug_panic>
	return c;
  1006fd:	8b 45 f4             	mov    0xfffffff4(%ebp),%eax
}
  100700:	c9                   	leave  
  100701:	c3                   	ret    

00100702 <cons_intenable>:

// Enable console interrupts.
void
cons_intenable(void)
{
  100702:	55                   	push   %ebp
  100703:	89 e5                	mov    %esp,%ebp
  100705:	83 ec 08             	sub    $0x8,%esp
	if (!cpu_onboot())	// only do once, on the boot CPU
  100708:	e8 8a ff ff ff       	call   100697 <cpu_onboot>
  10070d:	85 c0                	test   %eax,%eax
  10070f:	74 0a                	je     10071b <cons_intenable+0x19>
		return;

	kbd_intenable();
  100711:	e8 f7 9b 00 00       	call   10a30d <kbd_intenable>
	serial_intenable();
  100716:	e8 e6 9d 00 00       	call   10a501 <serial_intenable>
}
  10071b:	c9                   	leave  
  10071c:	c3                   	ret    

0010071d <cputs>:

// `High'-level console I/O.  Used by readline and cprintf.
void
cputs(const char *str)
{
  10071d:	55                   	push   %ebp
  10071e:	89 e5                	mov    %esp,%ebp
  100720:	53                   	push   %ebx
  100721:	83 ec 14             	sub    $0x14,%esp
static gcc_inline uint16_t
read_cs(void)
{
        uint16_t cs;
        __asm __volatile("movw %%cs,%0" : "=rm" (cs));
  100724:	8c 4d f6             	movw   %cs,0xfffffff6(%ebp)
        return cs;
  100727:	0f b7 45 f6          	movzwl 0xfffffff6(%ebp),%eax
	if (read_cs() & 3)
  10072b:	0f b7 c0             	movzwl %ax,%eax
  10072e:	83 e0 03             	and    $0x3,%eax
  100731:	85 c0                	test   %eax,%eax
  100733:	74 12                	je     100747 <cputs+0x2a>
  100735:	8b 45 08             	mov    0x8(%ebp),%eax
  100738:	89 45 f8             	mov    %eax,0xfffffff8(%ebp)
	// The last clause tells the assembler that this can
	// potentially change the condition codes and arbitrary
	// memory locations.

	asm volatile("int %0" :
  10073b:	b8 00 00 00 00       	mov    $0x0,%eax
  100740:	8b 5d f8             	mov    0xfffffff8(%ebp),%ebx
  100743:	cd 30                	int    $0x30
		return sys_cputs(str);	// use syscall from user mode
  100745:	eb 54                	jmp    10079b <cputs+0x7e>

	// Hold the console spinlock while printing the entire string,
	// so that the output of different cputs calls won't get mixed.
	// Implement ad hoc recursive locking for debugging convenience.
	bool already = spinlock_holding(&cons_lock);
  100747:	c7 04 24 40 ed 17 00 	movl   $0x17ed40,(%esp)
  10074e:	e8 8c 34 00 00       	call   103bdf <spinlock_holding>
  100753:	89 45 f0             	mov    %eax,0xfffffff0(%ebp)
	if (!already)
  100756:	83 7d f0 00          	cmpl   $0x0,0xfffffff0(%ebp)
  10075a:	75 23                	jne    10077f <cputs+0x62>
		spinlock_acquire(&cons_lock);
  10075c:	c7 04 24 40 ed 17 00 	movl   $0x17ed40,(%esp)
  100763:	e8 22 33 00 00       	call   103a8a <spinlock_acquire>

	char ch;
	while (*str)
  100768:	eb 15                	jmp    10077f <cputs+0x62>
		cons_putc(*str++);
  10076a:	8b 45 08             	mov    0x8(%ebp),%eax
  10076d:	0f b6 00             	movzbl (%eax),%eax
  100770:	0f be c0             	movsbl %al,%eax
  100773:	83 45 08 01          	addl   $0x1,0x8(%ebp)
  100777:	89 04 24             	mov    %eax,(%esp)
  10077a:	e8 99 fe ff ff       	call   100618 <cons_putc>
  10077f:	8b 45 08             	mov    0x8(%ebp),%eax
  100782:	0f b6 00             	movzbl (%eax),%eax
  100785:	84 c0                	test   %al,%al
  100787:	75 e1                	jne    10076a <cputs+0x4d>

	if (!already)
  100789:	83 7d f0 00          	cmpl   $0x0,0xfffffff0(%ebp)
  10078d:	75 0c                	jne    10079b <cputs+0x7e>
		spinlock_release(&cons_lock);
  10078f:	c7 04 24 40 ed 17 00 	movl   $0x17ed40,(%esp)
  100796:	e8 ea 33 00 00       	call   103b85 <spinlock_release>
}
  10079b:	83 c4 14             	add    $0x14,%esp
  10079e:	5b                   	pop    %ebx
  10079f:	5d                   	pop    %ebp
  1007a0:	c3                   	ret    

001007a1 <cons_io>:

// Synchronize the root process's console special files
// with the actual console I/O device.
bool
cons_io(void)
{
  1007a1:	55                   	push   %ebp
  1007a2:	89 e5                	mov    %esp,%ebp
  1007a4:	83 ec 38             	sub    $0x38,%esp
	// Lab 4: your console I/O code here.
	spinlock_acquire(&cons_lock);
  1007a7:	c7 04 24 40 ed 17 00 	movl   $0x17ed40,(%esp)
  1007ae:	e8 d7 32 00 00       	call   103a8a <spinlock_acquire>
	bool didio = 0;
  1007b3:	c7 45 e8 00 00 00 00 	movl   $0x0,0xffffffe8(%ebp)

	// Console output from the root process's console output file
	fileinode *outfi = &files->fi[FILEINO_CONSOUT];
  1007ba:	a1 98 da 10 00       	mov    0x10da98,%eax
  1007bf:	05 10 10 00 00       	add    $0x1010,%eax
  1007c4:	05 b8 00 00 00       	add    $0xb8,%eax
  1007c9:	89 45 ec             	mov    %eax,0xffffffec(%ebp)
	const char *outbuf = FILEDATA(FILEINO_CONSOUT);
  1007cc:	c7 45 f0 00 00 80 80 	movl   $0x80800000,0xfffffff0(%ebp)
	assert(cons_outsize <= outfi->size);
  1007d3:	a1 08 a2 17 00       	mov    0x17a208,%eax
  1007d8:	89 c2                	mov    %eax,%edx
  1007da:	8b 45 ec             	mov    0xffffffec(%ebp),%eax
  1007dd:	8b 40 4c             	mov    0x4c(%eax),%eax
  1007e0:	39 c2                	cmp    %eax,%edx
  1007e2:	76 4c                	jbe    100830 <cons_io+0x8f>
  1007e4:	c7 44 24 0c 21 be 10 	movl   $0x10be21,0xc(%esp)
  1007eb:	00 
  1007ec:	c7 44 24 08 ff bd 10 	movl   $0x10bdff,0x8(%esp)
  1007f3:	00 
  1007f4:	c7 44 24 04 a3 00 00 	movl   $0xa3,0x4(%esp)
  1007fb:	00 
  1007fc:	c7 04 24 c0 bd 10 00 	movl   $0x10bdc0,(%esp)
  100803:	e8 30 01 00 00       	call   100938 <debug_panic>
	while (cons_outsize < outfi->size) {
		cons_putc(outbuf[cons_outsize++]);
  100808:	8b 0d 08 a2 17 00    	mov    0x17a208,%ecx
  10080e:	89 c8                	mov    %ecx,%eax
  100810:	03 45 f0             	add    0xfffffff0(%ebp),%eax
  100813:	0f b6 00             	movzbl (%eax),%eax
  100816:	0f be d0             	movsbl %al,%edx
  100819:	8d 41 01             	lea    0x1(%ecx),%eax
  10081c:	a3 08 a2 17 00       	mov    %eax,0x17a208
  100821:	89 14 24             	mov    %edx,(%esp)
  100824:	e8 ef fd ff ff       	call   100618 <cons_putc>
		didio = 1;
  100829:	c7 45 e8 01 00 00 00 	movl   $0x1,0xffffffe8(%ebp)
  100830:	a1 08 a2 17 00       	mov    0x17a208,%eax
  100835:	89 c2                	mov    %eax,%edx
  100837:	8b 45 ec             	mov    0xffffffec(%ebp),%eax
  10083a:	8b 40 4c             	mov    0x4c(%eax),%eax
  10083d:	39 c2                	cmp    %eax,%edx
  10083f:	72 c7                	jb     100808 <cons_io+0x67>
	}

	// Console input to the root process's console input file
	fileinode *infi = &files->fi[FILEINO_CONSIN];
  100841:	a1 98 da 10 00       	mov    0x10da98,%eax
  100846:	05 10 10 00 00       	add    $0x1010,%eax
  10084b:	83 c0 5c             	add    $0x5c,%eax
  10084e:	89 45 f4             	mov    %eax,0xfffffff4(%ebp)
	char *inbuf = FILEDATA(FILEINO_CONSIN);
  100851:	c7 45 f8 00 00 40 80 	movl   $0x80400000,0xfffffff8(%ebp)
	int amount = cons.wpos - cons.rpos;
  100858:	8b 15 04 a2 17 00    	mov    0x17a204,%edx
  10085e:	a1 00 a2 17 00       	mov    0x17a200,%eax
  100863:	89 d1                	mov    %edx,%ecx
  100865:	29 c1                	sub    %eax,%ecx
  100867:	89 c8                	mov    %ecx,%eax
  100869:	89 45 fc             	mov    %eax,0xfffffffc(%ebp)
	if (infi->size + amount > FILE_MAXSIZE)
  10086c:	8b 45 f4             	mov    0xfffffff4(%ebp),%eax
  10086f:	8b 50 4c             	mov    0x4c(%eax),%edx
  100872:	8b 45 fc             	mov    0xfffffffc(%ebp),%eax
  100875:	8d 04 02             	lea    (%edx,%eax,1),%eax
  100878:	3d 00 00 40 00       	cmp    $0x400000,%eax
  10087d:	76 1c                	jbe    10089b <cons_io+0xfa>
		panic("cons_io: root process's console input file full!");
  10087f:	c7 44 24 08 40 be 10 	movl   $0x10be40,0x8(%esp)
  100886:	00 
  100887:	c7 44 24 04 ae 00 00 	movl   $0xae,0x4(%esp)
  10088e:	00 
  10088f:	c7 04 24 c0 bd 10 00 	movl   $0x10bdc0,(%esp)
  100896:	e8 9d 00 00 00       	call   100938 <debug_panic>
	assert(amount >= 0 && amount <= CONSBUFSIZE);
  10089b:	83 7d fc 00          	cmpl   $0x0,0xfffffffc(%ebp)
  10089f:	78 09                	js     1008aa <cons_io+0x109>
  1008a1:	81 7d fc 00 02 00 00 	cmpl   $0x200,0xfffffffc(%ebp)
  1008a8:	7e 24                	jle    1008ce <cons_io+0x12d>
  1008aa:	c7 44 24 0c 74 be 10 	movl   $0x10be74,0xc(%esp)
  1008b1:	00 
  1008b2:	c7 44 24 08 ff bd 10 	movl   $0x10bdff,0x8(%esp)
  1008b9:	00 
  1008ba:	c7 44 24 04 af 00 00 	movl   $0xaf,0x4(%esp)
  1008c1:	00 
  1008c2:	c7 04 24 c0 bd 10 00 	movl   $0x10bdc0,(%esp)
  1008c9:	e8 6a 00 00 00       	call   100938 <debug_panic>
	if (amount > 0) {
  1008ce:	83 7d fc 00          	cmpl   $0x0,0xfffffffc(%ebp)
  1008d2:	7e 53                	jle    100927 <cons_io+0x186>
		memmove(&inbuf[infi->size], &cons.buf[cons.rpos], amount);
  1008d4:	8b 55 fc             	mov    0xfffffffc(%ebp),%edx
  1008d7:	a1 00 a2 17 00       	mov    0x17a200,%eax
  1008dc:	8d 88 00 a0 17 00    	lea    0x17a000(%eax),%ecx
  1008e2:	8b 45 f4             	mov    0xfffffff4(%ebp),%eax
  1008e5:	8b 40 4c             	mov    0x4c(%eax),%eax
  1008e8:	03 45 f8             	add    0xfffffff8(%ebp),%eax
  1008eb:	89 54 24 08          	mov    %edx,0x8(%esp)
  1008ef:	89 4c 24 04          	mov    %ecx,0x4(%esp)
  1008f3:	89 04 24             	mov    %eax,(%esp)
  1008f6:	e8 87 af 00 00       	call   10b882 <memmove>
		infi->size += amount;
  1008fb:	8b 45 f4             	mov    0xfffffff4(%ebp),%eax
  1008fe:	8b 50 4c             	mov    0x4c(%eax),%edx
  100901:	8b 45 fc             	mov    0xfffffffc(%ebp),%eax
  100904:	01 c2                	add    %eax,%edx
  100906:	8b 45 f4             	mov    0xfffffff4(%ebp),%eax
  100909:	89 50 4c             	mov    %edx,0x4c(%eax)
		cons.rpos = cons.wpos = 0;
  10090c:	c7 05 04 a2 17 00 00 	movl   $0x0,0x17a204
  100913:	00 00 00 
  100916:	a1 04 a2 17 00       	mov    0x17a204,%eax
  10091b:	a3 00 a2 17 00       	mov    %eax,0x17a200
		didio = 1;
  100920:	c7 45 e8 01 00 00 00 	movl   $0x1,0xffffffe8(%ebp)
	}

	spinlock_release(&cons_lock);
  100927:	c7 04 24 40 ed 17 00 	movl   $0x17ed40,(%esp)
  10092e:	e8 52 32 00 00       	call   103b85 <spinlock_release>
	return didio;
  100933:	8b 45 e8             	mov    0xffffffe8(%ebp),%eax
}
  100936:	c9                   	leave  
  100937:	c3                   	ret    

00100938 <debug_panic>:
// Panic is called on unresolvable fatal errors.
// It prints "panic: mesg", and then enters the kernel monitor.
void
debug_panic(const char *file, int line, const char *fmt,...)
{
  100938:	55                   	push   %ebp
  100939:	89 e5                	mov    %esp,%ebp
  10093b:	83 ec 58             	sub    $0x58,%esp
static gcc_inline uint16_t
read_cs(void)
{
        uint16_t cs;
        __asm __volatile("movw %%cs,%0" : "=rm" (cs));
  10093e:	8c 4d fa             	movw   %cs,0xfffffffa(%ebp)
        return cs;
  100941:	0f b7 45 fa          	movzwl 0xfffffffa(%ebp),%eax
	va_list ap;
	int i;

	// Avoid infinite recursion if we're panicking from kernel mode.
	if ((read_cs() & 3) == 0) {
  100945:	0f b7 c0             	movzwl %ax,%eax
  100948:	83 e0 03             	and    $0x3,%eax
  10094b:	85 c0                	test   %eax,%eax
  10094d:	75 15                	jne    100964 <debug_panic+0x2c>
		if (panicstr)
  10094f:	a1 0c a2 17 00       	mov    0x17a20c,%eax
  100954:	85 c0                	test   %eax,%eax
  100956:	0f 85 95 00 00 00    	jne    1009f1 <debug_panic+0xb9>
			goto dead;
		panicstr = fmt;
  10095c:	8b 45 10             	mov    0x10(%ebp),%eax
  10095f:	a3 0c a2 17 00       	mov    %eax,0x17a20c
	}

	// First print the requested message
	va_start(ap, fmt);
  100964:	8d 45 10             	lea    0x10(%ebp),%eax
  100967:	83 c0 04             	add    $0x4,%eax
  10096a:	89 45 f0             	mov    %eax,0xfffffff0(%ebp)
	cprintf("kernel panic at %s:%d: ", file, line);
  10096d:	8b 45 0c             	mov    0xc(%ebp),%eax
  100970:	89 44 24 08          	mov    %eax,0x8(%esp)
  100974:	8b 45 08             	mov    0x8(%ebp),%eax
  100977:	89 44 24 04          	mov    %eax,0x4(%esp)
  10097b:	c7 04 24 99 be 10 00 	movl   $0x10be99,(%esp)
  100982:	e8 fe aa 00 00       	call   10b485 <cprintf>
	vcprintf(fmt, ap);
  100987:	8b 55 10             	mov    0x10(%ebp),%edx
  10098a:	8b 45 f0             	mov    0xfffffff0(%ebp),%eax
  10098d:	89 44 24 04          	mov    %eax,0x4(%esp)
  100991:	89 14 24             	mov    %edx,(%esp)
  100994:	e8 83 aa 00 00       	call   10b41c <vcprintf>
	cprintf("\n");
  100999:	c7 04 24 b1 be 10 00 	movl   $0x10beb1,(%esp)
  1009a0:	e8 e0 aa 00 00       	call   10b485 <cprintf>
static gcc_inline uint32_t
read_ebp(void)
{
        uint32_t ebp;
        __asm __volatile("movl %%ebp,%0" : "=rm" (ebp));
  1009a5:	89 6d fc             	mov    %ebp,0xfffffffc(%ebp)
        return ebp;
  1009a8:	8b 45 fc             	mov    0xfffffffc(%ebp),%eax
  1009ab:	89 c2                	mov    %eax,%edx
	va_end(ap);

	// Then print a backtrace of the kernel call chain
	uint32_t eips[DEBUG_TRACEFRAMES];
	debug_trace(read_ebp(), eips);
  1009ad:	8d 45 c8             	lea    0xffffffc8(%ebp),%eax
  1009b0:	89 44 24 04          	mov    %eax,0x4(%esp)
  1009b4:	89 14 24             	mov    %edx,(%esp)
  1009b7:	e8 83 00 00 00       	call   100a3f <debug_trace>
	for (i = 0; i < DEBUG_TRACEFRAMES && eips[i] != 0; i++)
  1009bc:	c7 45 f4 00 00 00 00 	movl   $0x0,0xfffffff4(%ebp)
  1009c3:	eb 1b                	jmp    1009e0 <debug_panic+0xa8>
		cprintf("  from %08x\n", eips[i]);
  1009c5:	8b 45 f4             	mov    0xfffffff4(%ebp),%eax
  1009c8:	8b 44 85 c8          	mov    0xffffffc8(%ebp,%eax,4),%eax
  1009cc:	89 44 24 04          	mov    %eax,0x4(%esp)
  1009d0:	c7 04 24 b3 be 10 00 	movl   $0x10beb3,(%esp)
  1009d7:	e8 a9 aa 00 00       	call   10b485 <cprintf>
  1009dc:	83 45 f4 01          	addl   $0x1,0xfffffff4(%ebp)
  1009e0:	83 7d f4 09          	cmpl   $0x9,0xfffffff4(%ebp)
  1009e4:	7f 0b                	jg     1009f1 <debug_panic+0xb9>
  1009e6:	8b 45 f4             	mov    0xfffffff4(%ebp),%eax
  1009e9:	8b 44 85 c8          	mov    0xffffffc8(%ebp,%eax,4),%eax
  1009ed:	85 c0                	test   %eax,%eax
  1009ef:	75 d4                	jne    1009c5 <debug_panic+0x8d>

dead:
	done();		// enter infinite loop (see kern/init.c)
  1009f1:	e8 4f fb ff ff       	call   100545 <done>

001009f6 <debug_warn>:
}

/* like panic, but don't */
void
debug_warn(const char *file, int line, const char *fmt,...)
{
  1009f6:	55                   	push   %ebp
  1009f7:	89 e5                	mov    %esp,%ebp
  1009f9:	83 ec 28             	sub    $0x28,%esp
	va_list ap;

	va_start(ap, fmt);
  1009fc:	8d 45 10             	lea    0x10(%ebp),%eax
  1009ff:	83 c0 04             	add    $0x4,%eax
  100a02:	89 45 fc             	mov    %eax,0xfffffffc(%ebp)
	cprintf("kernel warning at %s:%d: ", file, line);
  100a05:	8b 45 0c             	mov    0xc(%ebp),%eax
  100a08:	89 44 24 08          	mov    %eax,0x8(%esp)
  100a0c:	8b 45 08             	mov    0x8(%ebp),%eax
  100a0f:	89 44 24 04          	mov    %eax,0x4(%esp)
  100a13:	c7 04 24 c0 be 10 00 	movl   $0x10bec0,(%esp)
  100a1a:	e8 66 aa 00 00       	call   10b485 <cprintf>
	vcprintf(fmt, ap);
  100a1f:	8b 55 10             	mov    0x10(%ebp),%edx
  100a22:	8b 45 fc             	mov    0xfffffffc(%ebp),%eax
  100a25:	89 44 24 04          	mov    %eax,0x4(%esp)
  100a29:	89 14 24             	mov    %edx,(%esp)
  100a2c:	e8 eb a9 00 00       	call   10b41c <vcprintf>
	cprintf("\n");
  100a31:	c7 04 24 b1 be 10 00 	movl   $0x10beb1,(%esp)
  100a38:	e8 48 aa 00 00       	call   10b485 <cprintf>
	va_end(ap);
}
  100a3d:	c9                   	leave  
  100a3e:	c3                   	ret    

00100a3f <debug_trace>:

// Record the current call stack in eips[] by following the %ebp chain.
void gcc_noinline
debug_trace(uint32_t ebp, uint32_t eips[DEBUG_TRACEFRAMES])
{
  100a3f:	55                   	push   %ebp
  100a40:	89 e5                	mov    %esp,%ebp
  100a42:	83 ec 10             	sub    $0x10,%esp
//	panic("debug_trace not implemented");
  uint32_t *frame = (uint32_t *) ebp;
  100a45:	8b 45 08             	mov    0x8(%ebp),%eax
  100a48:	89 45 f8             	mov    %eax,0xfffffff8(%ebp)

  int i;

  // Print the eip of the last n frames,
  // where n is DEBUG_TRACEFRAMES
  for (i = 0; i < DEBUG_TRACEFRAMES && frame; i++) {
  100a4b:	c7 45 fc 00 00 00 00 	movl   $0x0,0xfffffffc(%ebp)
  100a52:	eb 21                	jmp    100a75 <debug_trace+0x36>
    // print relevent information about the stack
    //cprintf("ebp: %08x ", frame[0]);
    //cprintf("eip: %08x ", frame[1]);
    //cprintf("args: %08x %08x %08x %08x %08x ", frame[2], frame[3], frame[4], frame[5], frame[6]);
    //cprintf("\n"); 

    // add information to eips array
    eips[i] = frame[1];             // eip saved at ebp + 1
  100a54:	8b 45 fc             	mov    0xfffffffc(%ebp),%eax
  100a57:	c1 e0 02             	shl    $0x2,%eax
  100a5a:	89 c2                	mov    %eax,%edx
  100a5c:	03 55 0c             	add    0xc(%ebp),%edx
  100a5f:	8b 45 f8             	mov    0xfffffff8(%ebp),%eax
  100a62:	83 c0 04             	add    $0x4,%eax
  100a65:	8b 00                	mov    (%eax),%eax
  100a67:	89 02                	mov    %eax,(%edx)

    // move to the next frame up the stack
    frame = (uint32_t*)frame[0];  // prev ebp saved at ebp 0
  100a69:	8b 45 f8             	mov    0xfffffff8(%ebp),%eax
  100a6c:	8b 00                	mov    (%eax),%eax
  100a6e:	89 45 f8             	mov    %eax,0xfffffff8(%ebp)
  100a71:	83 45 fc 01          	addl   $0x1,0xfffffffc(%ebp)
  100a75:	83 7d fc 09          	cmpl   $0x9,0xfffffffc(%ebp)
  100a79:	7f 1b                	jg     100a96 <debug_trace+0x57>
  100a7b:	83 7d f8 00          	cmpl   $0x0,0xfffffff8(%ebp)
  100a7f:	75 d3                	jne    100a54 <debug_trace+0x15>
  }

  // if the there are less than DEBUG_TRACEFRAMES frames,
  // print the rest as null
  for (i; i < DEBUG_TRACEFRAMES; i++) {
  100a81:	eb 13                	jmp    100a96 <debug_trace+0x57>
    eips[i] = 0; 
  100a83:	8b 45 fc             	mov    0xfffffffc(%ebp),%eax
  100a86:	c1 e0 02             	shl    $0x2,%eax
  100a89:	03 45 0c             	add    0xc(%ebp),%eax
  100a8c:	c7 00 00 00 00 00    	movl   $0x0,(%eax)
  100a92:	83 45 fc 01          	addl   $0x1,0xfffffffc(%ebp)
  100a96:	83 7d fc 09          	cmpl   $0x9,0xfffffffc(%ebp)
  100a9a:	7e e7                	jle    100a83 <debug_trace+0x44>
  }
}
  100a9c:	c9                   	leave  
  100a9d:	c3                   	ret    

00100a9e <f3>:


static void gcc_noinline f3(int r, uint32_t *e) { debug_trace(read_ebp(), e); }
  100a9e:	55                   	push   %ebp
  100a9f:	89 e5                	mov    %esp,%ebp
  100aa1:	83 ec 18             	sub    $0x18,%esp
static gcc_inline uint32_t
read_ebp(void)
{
        uint32_t ebp;
        __asm __volatile("movl %%ebp,%0" : "=rm" (ebp));
  100aa4:	89 6d fc             	mov    %ebp,0xfffffffc(%ebp)
        return ebp;
  100aa7:	8b 45 fc             	mov    0xfffffffc(%ebp),%eax
  100aaa:	89 c2                	mov    %eax,%edx
  100aac:	8b 45 0c             	mov    0xc(%ebp),%eax
  100aaf:	89 44 24 04          	mov    %eax,0x4(%esp)
  100ab3:	89 14 24             	mov    %edx,(%esp)
  100ab6:	e8 84 ff ff ff       	call   100a3f <debug_trace>
  100abb:	c9                   	leave  
  100abc:	c3                   	ret    

00100abd <f2>:
static void gcc_noinline f2(int r, uint32_t *e) { r & 2 ? f3(r,e) : f3(r,e); }
  100abd:	55                   	push   %ebp
  100abe:	89 e5                	mov    %esp,%ebp
  100ac0:	83 ec 08             	sub    $0x8,%esp
  100ac3:	8b 45 08             	mov    0x8(%ebp),%eax
  100ac6:	83 e0 02             	and    $0x2,%eax
  100ac9:	85 c0                	test   %eax,%eax
  100acb:	74 14                	je     100ae1 <f2+0x24>
  100acd:	8b 45 0c             	mov    0xc(%ebp),%eax
  100ad0:	89 44 24 04          	mov    %eax,0x4(%esp)
  100ad4:	8b 45 08             	mov    0x8(%ebp),%eax
  100ad7:	89 04 24             	mov    %eax,(%esp)
  100ada:	e8 bf ff ff ff       	call   100a9e <f3>
  100adf:	eb 12                	jmp    100af3 <f2+0x36>
  100ae1:	8b 45 0c             	mov    0xc(%ebp),%eax
  100ae4:	89 44 24 04          	mov    %eax,0x4(%esp)
  100ae8:	8b 45 08             	mov    0x8(%ebp),%eax
  100aeb:	89 04 24             	mov    %eax,(%esp)
  100aee:	e8 ab ff ff ff       	call   100a9e <f3>
  100af3:	c9                   	leave  
  100af4:	c3                   	ret    

00100af5 <f1>:
static void gcc_noinline f1(int r, uint32_t *e) { r & 1 ? f2(r,e) : f2(r,e); }
  100af5:	55                   	push   %ebp
  100af6:	89 e5                	mov    %esp,%ebp
  100af8:	83 ec 08             	sub    $0x8,%esp
  100afb:	8b 45 08             	mov    0x8(%ebp),%eax
  100afe:	83 e0 01             	and    $0x1,%eax
  100b01:	84 c0                	test   %al,%al
  100b03:	74 14                	je     100b19 <f1+0x24>
  100b05:	8b 45 0c             	mov    0xc(%ebp),%eax
  100b08:	89 44 24 04          	mov    %eax,0x4(%esp)
  100b0c:	8b 45 08             	mov    0x8(%ebp),%eax
  100b0f:	89 04 24             	mov    %eax,(%esp)
  100b12:	e8 a6 ff ff ff       	call   100abd <f2>
  100b17:	eb 12                	jmp    100b2b <f1+0x36>
  100b19:	8b 45 0c             	mov    0xc(%ebp),%eax
  100b1c:	89 44 24 04          	mov    %eax,0x4(%esp)
  100b20:	8b 45 08             	mov    0x8(%ebp),%eax
  100b23:	89 04 24             	mov    %eax,(%esp)
  100b26:	e8 92 ff ff ff       	call   100abd <f2>
  100b2b:	c9                   	leave  
  100b2c:	c3                   	ret    

00100b2d <debug_check>:

// Test the backtrace implementation for correct operation
void
debug_check(void)
{
  100b2d:	55                   	push   %ebp
  100b2e:	89 e5                	mov    %esp,%ebp
  100b30:	81 ec c8 00 00 00    	sub    $0xc8,%esp
	uint32_t eips[4][DEBUG_TRACEFRAMES];
	int r, i;

	// produce several related backtraces...
	for (i = 0; i < 4; i++)
  100b36:	c7 45 fc 00 00 00 00 	movl   $0x0,0xfffffffc(%ebp)
  100b3d:	eb 2a                	jmp    100b69 <debug_check+0x3c>
		f1(i, eips[i]);
  100b3f:	8b 55 fc             	mov    0xfffffffc(%ebp),%edx
  100b42:	89 d0                	mov    %edx,%eax
  100b44:	c1 e0 02             	shl    $0x2,%eax
  100b47:	01 d0                	add    %edx,%eax
  100b49:	c1 e0 03             	shl    $0x3,%eax
  100b4c:	89 c2                	mov    %eax,%edx
  100b4e:	8d 85 58 ff ff ff    	lea    0xffffff58(%ebp),%eax
  100b54:	01 d0                	add    %edx,%eax
  100b56:	89 44 24 04          	mov    %eax,0x4(%esp)
  100b5a:	8b 45 fc             	mov    0xfffffffc(%ebp),%eax
  100b5d:	89 04 24             	mov    %eax,(%esp)
  100b60:	e8 90 ff ff ff       	call   100af5 <f1>
  100b65:	83 45 fc 01          	addl   $0x1,0xfffffffc(%ebp)
  100b69:	83 7d fc 03          	cmpl   $0x3,0xfffffffc(%ebp)
  100b6d:	7e d0                	jle    100b3f <debug_check+0x12>

	// ...and make sure they come out correctly.
	for (r = 0; r < 4; r++)
  100b6f:	c7 45 f8 00 00 00 00 	movl   $0x0,0xfffffff8(%ebp)
  100b76:	e9 bc 00 00 00       	jmp    100c37 <debug_check+0x10a>
		for (i = 0; i < DEBUG_TRACEFRAMES; i++) {
  100b7b:	c7 45 fc 00 00 00 00 	movl   $0x0,0xfffffffc(%ebp)
  100b82:	e9 a2 00 00 00       	jmp    100c29 <debug_check+0xfc>
			assert((eips[r][i] != 0) == (i < 5));
  100b87:	8b 55 f8             	mov    0xfffffff8(%ebp),%edx
  100b8a:	8b 4d fc             	mov    0xfffffffc(%ebp),%ecx
  100b8d:	89 d0                	mov    %edx,%eax
  100b8f:	c1 e0 02             	shl    $0x2,%eax
  100b92:	01 d0                	add    %edx,%eax
  100b94:	01 c0                	add    %eax,%eax
  100b96:	01 c8                	add    %ecx,%eax
  100b98:	8b 84 85 58 ff ff ff 	mov    0xffffff58(%ebp,%eax,4),%eax
  100b9f:	85 c0                	test   %eax,%eax
  100ba1:	0f 95 c2             	setne  %dl
  100ba4:	83 7d fc 04          	cmpl   $0x4,0xfffffffc(%ebp)
  100ba8:	0f 9e c0             	setle  %al
  100bab:	31 d0                	xor    %edx,%eax
  100bad:	84 c0                	test   %al,%al
  100baf:	74 24                	je     100bd5 <debug_check+0xa8>
  100bb1:	c7 44 24 0c da be 10 	movl   $0x10beda,0xc(%esp)
  100bb8:	00 
  100bb9:	c7 44 24 08 f7 be 10 	movl   $0x10bef7,0x8(%esp)
  100bc0:	00 
  100bc1:	c7 44 24 04 7a 00 00 	movl   $0x7a,0x4(%esp)
  100bc8:	00 
  100bc9:	c7 04 24 0c bf 10 00 	movl   $0x10bf0c,(%esp)
  100bd0:	e8 63 fd ff ff       	call   100938 <debug_panic>
			if (i >= 2)
  100bd5:	83 7d fc 01          	cmpl   $0x1,0xfffffffc(%ebp)
  100bd9:	7e 4a                	jle    100c25 <debug_check+0xf8>
				assert(eips[r][i] == eips[0][i]);
  100bdb:	8b 55 f8             	mov    0xfffffff8(%ebp),%edx
  100bde:	8b 4d fc             	mov    0xfffffffc(%ebp),%ecx
  100be1:	89 d0                	mov    %edx,%eax
  100be3:	c1 e0 02             	shl    $0x2,%eax
  100be6:	01 d0                	add    %edx,%eax
  100be8:	01 c0                	add    %eax,%eax
  100bea:	01 c8                	add    %ecx,%eax
  100bec:	8b 94 85 58 ff ff ff 	mov    0xffffff58(%ebp,%eax,4),%edx
  100bf3:	8b 45 fc             	mov    0xfffffffc(%ebp),%eax
  100bf6:	8b 84 85 58 ff ff ff 	mov    0xffffff58(%ebp,%eax,4),%eax
  100bfd:	39 c2                	cmp    %eax,%edx
  100bff:	74 24                	je     100c25 <debug_check+0xf8>
  100c01:	c7 44 24 0c 19 bf 10 	movl   $0x10bf19,0xc(%esp)
  100c08:	00 
  100c09:	c7 44 24 08 f7 be 10 	movl   $0x10bef7,0x8(%esp)
  100c10:	00 
  100c11:	c7 44 24 04 7c 00 00 	movl   $0x7c,0x4(%esp)
  100c18:	00 
  100c19:	c7 04 24 0c bf 10 00 	movl   $0x10bf0c,(%esp)
  100c20:	e8 13 fd ff ff       	call   100938 <debug_panic>
  100c25:	83 45 fc 01          	addl   $0x1,0xfffffffc(%ebp)
  100c29:	83 7d fc 09          	cmpl   $0x9,0xfffffffc(%ebp)
  100c2d:	0f 8e 54 ff ff ff    	jle    100b87 <debug_check+0x5a>
  100c33:	83 45 f8 01          	addl   $0x1,0xfffffff8(%ebp)
  100c37:	83 7d f8 03          	cmpl   $0x3,0xfffffff8(%ebp)
  100c3b:	0f 8e 3a ff ff ff    	jle    100b7b <debug_check+0x4e>
		}
	assert(eips[0][0] == eips[1][0]);
  100c41:	8b 95 58 ff ff ff    	mov    0xffffff58(%ebp),%edx
  100c47:	8b 45 80             	mov    0xffffff80(%ebp),%eax
  100c4a:	39 c2                	cmp    %eax,%edx
  100c4c:	74 24                	je     100c72 <debug_check+0x145>
  100c4e:	c7 44 24 0c 32 bf 10 	movl   $0x10bf32,0xc(%esp)
  100c55:	00 
  100c56:	c7 44 24 08 f7 be 10 	movl   $0x10bef7,0x8(%esp)
  100c5d:	00 
  100c5e:	c7 44 24 04 7e 00 00 	movl   $0x7e,0x4(%esp)
  100c65:	00 
  100c66:	c7 04 24 0c bf 10 00 	movl   $0x10bf0c,(%esp)
  100c6d:	e8 c6 fc ff ff       	call   100938 <debug_panic>
	assert(eips[2][0] == eips[3][0]);
  100c72:	8b 55 a8             	mov    0xffffffa8(%ebp),%edx
  100c75:	8b 45 d0             	mov    0xffffffd0(%ebp),%eax
  100c78:	39 c2                	cmp    %eax,%edx
  100c7a:	74 24                	je     100ca0 <debug_check+0x173>
  100c7c:	c7 44 24 0c 4b bf 10 	movl   $0x10bf4b,0xc(%esp)
  100c83:	00 
  100c84:	c7 44 24 08 f7 be 10 	movl   $0x10bef7,0x8(%esp)
  100c8b:	00 
  100c8c:	c7 44 24 04 7f 00 00 	movl   $0x7f,0x4(%esp)
  100c93:	00 
  100c94:	c7 04 24 0c bf 10 00 	movl   $0x10bf0c,(%esp)
  100c9b:	e8 98 fc ff ff       	call   100938 <debug_panic>
	assert(eips[1][0] != eips[2][0]);
  100ca0:	8b 55 80             	mov    0xffffff80(%ebp),%edx
  100ca3:	8b 45 a8             	mov    0xffffffa8(%ebp),%eax
  100ca6:	39 c2                	cmp    %eax,%edx
  100ca8:	75 24                	jne    100cce <debug_check+0x1a1>
  100caa:	c7 44 24 0c 64 bf 10 	movl   $0x10bf64,0xc(%esp)
  100cb1:	00 
  100cb2:	c7 44 24 08 f7 be 10 	movl   $0x10bef7,0x8(%esp)
  100cb9:	00 
  100cba:	c7 44 24 04 80 00 00 	movl   $0x80,0x4(%esp)
  100cc1:	00 
  100cc2:	c7 04 24 0c bf 10 00 	movl   $0x10bf0c,(%esp)
  100cc9:	e8 6a fc ff ff       	call   100938 <debug_panic>
	assert(eips[0][1] == eips[2][1]);
  100cce:	8b 95 5c ff ff ff    	mov    0xffffff5c(%ebp),%edx
  100cd4:	8b 45 ac             	mov    0xffffffac(%ebp),%eax
  100cd7:	39 c2                	cmp    %eax,%edx
  100cd9:	74 24                	je     100cff <debug_check+0x1d2>
  100cdb:	c7 44 24 0c 7d bf 10 	movl   $0x10bf7d,0xc(%esp)
  100ce2:	00 
  100ce3:	c7 44 24 08 f7 be 10 	movl   $0x10bef7,0x8(%esp)
  100cea:	00 
  100ceb:	c7 44 24 04 81 00 00 	movl   $0x81,0x4(%esp)
  100cf2:	00 
  100cf3:	c7 04 24 0c bf 10 00 	movl   $0x10bf0c,(%esp)
  100cfa:	e8 39 fc ff ff       	call   100938 <debug_panic>
	assert(eips[1][1] == eips[3][1]);
  100cff:	8b 55 84             	mov    0xffffff84(%ebp),%edx
  100d02:	8b 45 d4             	mov    0xffffffd4(%ebp),%eax
  100d05:	39 c2                	cmp    %eax,%edx
  100d07:	74 24                	je     100d2d <debug_check+0x200>
  100d09:	c7 44 24 0c 96 bf 10 	movl   $0x10bf96,0xc(%esp)
  100d10:	00 
  100d11:	c7 44 24 08 f7 be 10 	movl   $0x10bef7,0x8(%esp)
  100d18:	00 
  100d19:	c7 44 24 04 82 00 00 	movl   $0x82,0x4(%esp)
  100d20:	00 
  100d21:	c7 04 24 0c bf 10 00 	movl   $0x10bf0c,(%esp)
  100d28:	e8 0b fc ff ff       	call   100938 <debug_panic>
	assert(eips[0][1] != eips[1][1]);
  100d2d:	8b 95 5c ff ff ff    	mov    0xffffff5c(%ebp),%edx
  100d33:	8b 45 84             	mov    0xffffff84(%ebp),%eax
  100d36:	39 c2                	cmp    %eax,%edx
  100d38:	75 24                	jne    100d5e <debug_check+0x231>
  100d3a:	c7 44 24 0c af bf 10 	movl   $0x10bfaf,0xc(%esp)
  100d41:	00 
  100d42:	c7 44 24 08 f7 be 10 	movl   $0x10bef7,0x8(%esp)
  100d49:	00 
  100d4a:	c7 44 24 04 83 00 00 	movl   $0x83,0x4(%esp)
  100d51:	00 
  100d52:	c7 04 24 0c bf 10 00 	movl   $0x10bf0c,(%esp)
  100d59:	e8 da fb ff ff       	call   100938 <debug_panic>

	cprintf("debug_check() succeeded!\n");
  100d5e:	c7 04 24 c8 bf 10 00 	movl   $0x10bfc8,(%esp)
  100d65:	e8 1b a7 00 00       	call   10b485 <cprintf>
}
  100d6a:	c9                   	leave  
  100d6b:	c3                   	ret    

00100d6c <mem_init>:
void mem_check(void);

void
mem_init(void)
{
  100d6c:	55                   	push   %ebp
  100d6d:	89 e5                	mov    %esp,%ebp
  100d6f:	83 ec 48             	sub    $0x48,%esp
	if (!cpu_onboot())	// only do once, on the boot CPU
  100d72:	e8 39 02 00 00       	call   100fb0 <cpu_onboot>
  100d77:	85 c0                	test   %eax,%eax
  100d79:	0f 84 2f 02 00 00    	je     100fae <mem_init+0x242>
		return;

	// Determine how much base (<640K) and extended (>1MB) memory
	// is available in the system (in bytes),
	// by reading the PC's BIOS-managed nonvolatile RAM (NVRAM).
	// The NVRAM tells us how many kilobytes there are.
	// Since the count is 16 bits, this gives us up to 64MB of RAM;
	// additional RAM beyond that would have to be detected another way.
	size_t basemem = ROUNDDOWN(nvram_read16(NVRAM_BASELO)*1024, PAGESIZE);
  100d7f:	c7 04 24 15 00 00 00 	movl   $0x15,(%esp)
  100d86:	e8 9a 99 00 00       	call   10a725 <nvram_read16>
  100d8b:	c1 e0 0a             	shl    $0xa,%eax
  100d8e:	89 45 ec             	mov    %eax,0xffffffec(%ebp)
  100d91:	8b 45 ec             	mov    0xffffffec(%ebp),%eax
  100d94:	25 00 f0 ff ff       	and    $0xfffff000,%eax
  100d99:	89 45 dc             	mov    %eax,0xffffffdc(%ebp)
	size_t extmem = ROUNDDOWN(nvram_read16(NVRAM_EXTLO)*1024, PAGESIZE);
  100d9c:	c7 04 24 17 00 00 00 	movl   $0x17,(%esp)
  100da3:	e8 7d 99 00 00       	call   10a725 <nvram_read16>
  100da8:	c1 e0 0a             	shl    $0xa,%eax
  100dab:	89 45 f0             	mov    %eax,0xfffffff0(%ebp)
  100dae:	8b 45 f0             	mov    0xfffffff0(%ebp),%eax
  100db1:	25 00 f0 ff ff       	and    $0xfffff000,%eax
  100db6:	89 45 e0             	mov    %eax,0xffffffe0(%ebp)

	warn("Assuming we have 1GB of memory!");
  100db9:	c7 44 24 08 e4 bf 10 	movl   $0x10bfe4,0x8(%esp)
  100dc0:	00 
  100dc1:	c7 44 24 04 33 00 00 	movl   $0x33,0x4(%esp)
  100dc8:	00 
  100dc9:	c7 04 24 04 c0 10 00 	movl   $0x10c004,(%esp)
  100dd0:	e8 21 fc ff ff       	call   1009f6 <debug_warn>
	extmem = 1024*1024*1024 - MEM_EXT;	// assume 1GB total memory
  100dd5:	c7 45 e0 00 00 f0 3f 	movl   $0x3ff00000,0xffffffe0(%ebp)

	// The maximum physical address is the top of extended memory.
	mem_max = MEM_EXT + extmem;
  100ddc:	8b 45 e0             	mov    0xffffffe0(%ebp),%eax
  100ddf:	05 00 00 10 00       	add    $0x100000,%eax
  100de4:	a3 d8 ed 17 00       	mov    %eax,0x17edd8

	// Compute the total number of physical pages (including I/O holes)
	mem_npage = mem_max / PAGESIZE;
  100de9:	a1 d8 ed 17 00       	mov    0x17edd8,%eax
  100dee:	c1 e8 0c             	shr    $0xc,%eax
  100df1:	a3 84 ed 17 00       	mov    %eax,0x17ed84

	cprintf("Physical memory: %dK available, ", (int)(mem_max/1024));
  100df6:	a1 d8 ed 17 00       	mov    0x17edd8,%eax
  100dfb:	c1 e8 0a             	shr    $0xa,%eax
  100dfe:	89 44 24 04          	mov    %eax,0x4(%esp)
  100e02:	c7 04 24 10 c0 10 00 	movl   $0x10c010,(%esp)
  100e09:	e8 77 a6 00 00       	call   10b485 <cprintf>
	cprintf("base = %dK, extended = %dK\n",
  100e0e:	8b 45 e0             	mov    0xffffffe0(%ebp),%eax
  100e11:	c1 e8 0a             	shr    $0xa,%eax
  100e14:	89 c2                	mov    %eax,%edx
  100e16:	8b 45 dc             	mov    0xffffffdc(%ebp),%eax
  100e19:	c1 e8 0a             	shr    $0xa,%eax
  100e1c:	89 54 24 08          	mov    %edx,0x8(%esp)
  100e20:	89 44 24 04          	mov    %eax,0x4(%esp)
  100e24:	c7 04 24 31 c0 10 00 	movl   $0x10c031,(%esp)
  100e2b:	e8 55 a6 00 00       	call   10b485 <cprintf>
		(int)(basemem/1024), (int)(extmem/1024));


	// Insert code here to:
	// (1)	allocate physical memory for the mem_pageinfo array,
	//	making it big enough to hold mem_npage entries.
	// (2)	add all pageinfo structs in the array representing
	//	available memory that is not in use for other purposes.
	//
	// For step (2), here is some incomplete/incorrect example code
	// that simply marks all mem_npage pages as free.
	// Which memory is actually free?
	//  1) Reserve page 0 for the real-mode IDT and BIOS structures
	//     (do not allow this page to be used for anything else).
	//  2) Reserve page 1 for the AP bootstrap code (boot/bootother.S).
	//  3) Mark the rest of base memory as free.
	//  4) Then comes the IO hole [MEM_IO, MEM_EXT).
	//     Mark it as in-use so that it can never be allocated.      
	//  5) Then extended memory [MEM_EXT, ...).
	//     Some of it is in use, some is free.
	//     Which pages hold the kernel and the pageinfo array?
	//     Hint: the linker places the kernel (see start and end above),
	//     but YOU decide where to place the pageinfo array.
	// Change the code to reflect this.
	pageinfo **freetail = &mem_freelist;
  100e30:	c7 45 e4 80 ed 17 00 	movl   $0x17ed80,0xffffffe4(%ebp)
  // start at the beginning of memeory
  mem_pageinfo = (pageinfo *) ROUNDUP(((int)end), sizeof(pageinfo));
  100e37:	c7 45 f4 08 00 00 00 	movl   $0x8,0xfffffff4(%ebp)
  100e3e:	b8 08 20 18 00       	mov    $0x182008,%eax
  100e43:	83 e8 01             	sub    $0x1,%eax
  100e46:	03 45 f4             	add    0xfffffff4(%ebp),%eax
  100e49:	89 45 f8             	mov    %eax,0xfffffff8(%ebp)
  100e4c:	8b 45 f8             	mov    0xfffffff8(%ebp),%eax
  100e4f:	ba 00 00 00 00       	mov    $0x0,%edx
  100e54:	f7 75 f4             	divl   0xfffffff4(%ebp)
  100e57:	8b 45 f8             	mov    0xfffffff8(%ebp),%eax
  100e5a:	29 d0                	sub    %edx,%eax
  100e5c:	a3 dc ed 17 00       	mov    %eax,0x17eddc

  // set it all to zero
  memset(mem_pageinfo, 0, sizeof(pageinfo) * mem_npage);
  100e61:	a1 84 ed 17 00       	mov    0x17ed84,%eax
  100e66:	c1 e0 03             	shl    $0x3,%eax
  100e69:	8b 15 dc ed 17 00    	mov    0x17eddc,%edx
  100e6f:	89 44 24 08          	mov    %eax,0x8(%esp)
  100e73:	c7 44 24 04 00 00 00 	movl   $0x0,0x4(%esp)
  100e7a:	00 
  100e7b:	89 14 24             	mov    %edx,(%esp)
  100e7e:	e8 86 a9 00 00       	call   10b809 <memset>

  spinlock_init(&page_spinlock);
  100e83:	c7 44 24 08 5d 00 00 	movl   $0x5d,0x8(%esp)
  100e8a:	00 
  100e8b:	c7 44 24 04 04 c0 10 	movl   $0x10c004,0x4(%esp)
  100e92:	00 
  100e93:	c7 04 24 a0 ed 17 00 	movl   $0x17eda0,(%esp)
  100e9a:	e8 c1 2b 00 00       	call   103a60 <spinlock_init_>
  int i;

	for (i = 0; i < mem_npage; i++) {
  100e9f:	c7 45 e8 00 00 00 00 	movl   $0x0,0xffffffe8(%ebp)
  100ea6:	e9 e5 00 00 00       	jmp    100f90 <mem_init+0x224>

    // physical address of current pageinfo
    uint32_t paddr = mem_pi2phys(mem_pageinfo + i);
  100eab:	8b 45 e8             	mov    0xffffffe8(%ebp),%eax
  100eae:	c1 e0 03             	shl    $0x3,%eax
  100eb1:	89 c2                	mov    %eax,%edx
  100eb3:	a1 dc ed 17 00       	mov    0x17eddc,%eax
  100eb8:	8d 04 02             	lea    (%edx,%eax,1),%eax
  100ebb:	89 c2                	mov    %eax,%edx
  100ebd:	a1 dc ed 17 00       	mov    0x17eddc,%eax
  100ec2:	89 d1                	mov    %edx,%ecx
  100ec4:	29 c1                	sub    %eax,%ecx
  100ec6:	89 c8                	mov    %ecx,%eax
  100ec8:	c1 e0 09             	shl    $0x9,%eax
  100ecb:	89 45 fc             	mov    %eax,0xfffffffc(%ebp)
    if ((i == 0 || i == 1 || // pages 0 and 1 are reserved for idt, bios, and bootstrap (see above)
  100ece:	83 7d e8 00          	cmpl   $0x0,0xffffffe8(%ebp)
  100ed2:	74 61                	je     100f35 <mem_init+0x1c9>
  100ed4:	83 7d e8 01          	cmpl   $0x1,0xffffffe8(%ebp)
  100ed8:	74 5b                	je     100f35 <mem_init+0x1c9>
  100eda:	8b 45 fc             	mov    0xfffffffc(%ebp),%eax
  100edd:	05 00 10 00 00       	add    $0x1000,%eax
  100ee2:	3d ff ff 09 00       	cmp    $0x9ffff,%eax
  100ee7:	76 09                	jbe    100ef2 <mem_init+0x186>
  100ee9:	81 7d fc ff ff 0f 00 	cmpl   $0xfffff,0xfffffffc(%ebp)
  100ef0:	76 43                	jbe    100f35 <mem_init+0x1c9>
  100ef2:	8b 45 fc             	mov    0xfffffffc(%ebp),%eax
  100ef5:	05 00 10 00 00       	add    $0x1000,%eax
  100efa:	ba 0c 00 10 00       	mov    $0x10000c,%edx
  100eff:	39 d0                	cmp    %edx,%eax
  100f01:	72 0a                	jb     100f0d <mem_init+0x1a1>
  100f03:	b8 08 20 18 00       	mov    $0x182008,%eax
  100f08:	39 45 fc             	cmp    %eax,0xfffffffc(%ebp)
  100f0b:	72 28                	jb     100f35 <mem_init+0x1c9>
  100f0d:	8b 45 fc             	mov    0xfffffffc(%ebp),%eax
  100f10:	05 00 10 00 00       	add    $0x1000,%eax
  100f15:	ba dc ed 17 00       	mov    $0x17eddc,%edx
  100f1a:	39 d0                	cmp    %edx,%eax
  100f1c:	72 30                	jb     100f4e <mem_init+0x1e2>
  100f1e:	a1 84 ed 17 00       	mov    0x17ed84,%eax
  100f23:	c1 e0 03             	shl    $0x3,%eax
  100f26:	89 c2                	mov    %eax,%edx
  100f28:	a1 dc ed 17 00       	mov    0x17eddc,%eax
  100f2d:	8d 04 02             	lea    (%edx,%eax,1),%eax
  100f30:	3b 45 fc             	cmp    0xfffffffc(%ebp),%eax
  100f33:	76 19                	jbe    100f4e <mem_init+0x1e2>
          (paddr + PAGESIZE >= MEM_IO && paddr < MEM_EXT) || // IO section is reserved
          (paddr + PAGESIZE >= (uint32_t) &start[0] && paddr < (uint32_t) &end[0]) || // kernel, 
          (paddr + PAGESIZE >= (uint32_t) &mem_pageinfo && // start of pageinfo array
           paddr < (uint32_t) &mem_pageinfo[mem_npage]) // end of pageinfo array
     )) {
      mem_pageinfo[i].refcount = 1; 
  100f35:	8b 45 e8             	mov    0xffffffe8(%ebp),%eax
  100f38:	c1 e0 03             	shl    $0x3,%eax
  100f3b:	89 c2                	mov    %eax,%edx
  100f3d:	a1 dc ed 17 00       	mov    0x17eddc,%eax
  100f42:	8d 04 02             	lea    (%edx,%eax,1),%eax
  100f45:	c7 40 04 01 00 00 00 	movl   $0x1,0x4(%eax)
  100f4c:	eb 3e                	jmp    100f8c <mem_init+0x220>
    } else {
      mem_pageinfo[i].refcount = 0; 
  100f4e:	8b 45 e8             	mov    0xffffffe8(%ebp),%eax
  100f51:	c1 e0 03             	shl    $0x3,%eax
  100f54:	89 c2                	mov    %eax,%edx
  100f56:	a1 dc ed 17 00       	mov    0x17eddc,%eax
  100f5b:	8d 04 02             	lea    (%edx,%eax,1),%eax
  100f5e:	c7 40 04 00 00 00 00 	movl   $0x0,0x4(%eax)
      // Add the page to the end of the free list.
      *freetail = &mem_pageinfo[i];
  100f65:	8b 45 e8             	mov    0xffffffe8(%ebp),%eax
  100f68:	c1 e0 03             	shl    $0x3,%eax
  100f6b:	89 c2                	mov    %eax,%edx
  100f6d:	a1 dc ed 17 00       	mov    0x17eddc,%eax
  100f72:	01 c2                	add    %eax,%edx
  100f74:	8b 45 e4             	mov    0xffffffe4(%ebp),%eax
  100f77:	89 10                	mov    %edx,(%eax)
      freetail = &mem_pageinfo[i].free_next;
  100f79:	8b 45 e8             	mov    0xffffffe8(%ebp),%eax
  100f7c:	c1 e0 03             	shl    $0x3,%eax
  100f7f:	89 c2                	mov    %eax,%edx
  100f81:	a1 dc ed 17 00       	mov    0x17eddc,%eax
  100f86:	8d 04 02             	lea    (%edx,%eax,1),%eax
  100f89:	89 45 e4             	mov    %eax,0xffffffe4(%ebp)
  100f8c:	83 45 e8 01          	addl   $0x1,0xffffffe8(%ebp)
  100f90:	8b 55 e8             	mov    0xffffffe8(%ebp),%edx
  100f93:	a1 84 ed 17 00       	mov    0x17ed84,%eax
  100f98:	39 c2                	cmp    %eax,%edx
  100f9a:	0f 82 0b ff ff ff    	jb     100eab <mem_init+0x13f>
    }
	}

	*freetail = NULL;	// null-terminate the freelist
  100fa0:	8b 45 e4             	mov    0xffffffe4(%ebp),%eax
  100fa3:	c7 00 00 00 00 00    	movl   $0x0,(%eax)

	// Check to make sure the page allocator seems to work correctly.
	mem_check();
  100fa9:	e8 2e 01 00 00       	call   1010dc <mem_check>
}
  100fae:	c9                   	leave  
  100faf:	c3                   	ret    

00100fb0 <cpu_onboot>:
}

// Returns true if we're running on the bootstrap CPU.
static inline int
cpu_onboot() {
  100fb0:	55                   	push   %ebp
  100fb1:	89 e5                	mov    %esp,%ebp
  100fb3:	83 ec 08             	sub    $0x8,%esp
	return cpu_cur() == &cpu_boot;
  100fb6:	e8 0d 00 00 00       	call   100fc8 <cpu_cur>
  100fbb:	3d 00 e0 10 00       	cmp    $0x10e000,%eax
  100fc0:	0f 94 c0             	sete   %al
  100fc3:	0f b6 c0             	movzbl %al,%eax
}
  100fc6:	c9                   	leave  
  100fc7:	c3                   	ret    

00100fc8 <cpu_cur>:
  100fc8:	55                   	push   %ebp
  100fc9:	89 e5                	mov    %esp,%ebp
  100fcb:	83 ec 28             	sub    $0x28,%esp
static gcc_inline uint32_t
read_esp(void)
{
        uint32_t esp;
        __asm __volatile("movl %%esp,%0" : "=rm" (esp));
  100fce:	89 65 fc             	mov    %esp,0xfffffffc(%ebp)
        return esp;
  100fd1:	8b 45 fc             	mov    0xfffffffc(%ebp),%eax
// Find the CPU struct representing the current CPU.
// It always resides at the bottom of the page containing the CPU's stack.
static inline cpu *
cpu_cur() {
	cpu *c = (cpu*)ROUNDDOWN(read_esp(), PAGESIZE);
  100fd4:	89 45 f8             	mov    %eax,0xfffffff8(%ebp)
  100fd7:	8b 45 f8             	mov    0xfffffff8(%ebp),%eax
  100fda:	25 00 f0 ff ff       	and    $0xfffff000,%eax
  100fdf:	89 45 f4             	mov    %eax,0xfffffff4(%ebp)
	assert(c->magic == CPU_MAGIC);
  100fe2:	8b 45 f4             	mov    0xfffffff4(%ebp),%eax
  100fe5:	8b 80 b8 00 00 00    	mov    0xb8(%eax),%eax
  100feb:	3d 32 54 76 98       	cmp    $0x98765432,%eax
  100ff0:	74 24                	je     101016 <cpu_cur+0x4e>
  100ff2:	c7 44 24 0c 4d c0 10 	movl   $0x10c04d,0xc(%esp)
  100ff9:	00 
  100ffa:	c7 44 24 08 63 c0 10 	movl   $0x10c063,0x8(%esp)
  101001:	00 
  101002:	c7 44 24 04 5c 00 00 	movl   $0x5c,0x4(%esp)
  101009:	00 
  10100a:	c7 04 24 78 c0 10 00 	movl   $0x10c078,(%esp)
  101011:	e8 22 f9 ff ff       	call   100938 <debug_panic>
	return c;
  101016:	8b 45 f4             	mov    0xfffffff4(%ebp),%eax
}
  101019:	c9                   	leave  
  10101a:	c3                   	ret    

0010101b <mem_alloc>:

//
// Allocates a physical page from the page free list.
// Does NOT set the contents of the physical page to zero -
// the caller must do that if necessary.
//
// RETURNS 
//   - a pointer to the page's pageinfo struct if successful
//   - NULL if no available physical pages.
//
// Hint: pi->refs should not be incremented 
// Hint: be sure to use proper mutual exclusion for multiprocessor operation.
pageinfo *
mem_alloc(void)
{
  10101b:	55                   	push   %ebp
  10101c:	89 e5                	mov    %esp,%ebp
  10101e:	83 ec 18             	sub    $0x18,%esp
	// Fill this function in
	// Fill this function in.
//	panic("mem_alloc not implemented.");
  spinlock_acquire(&page_spinlock);
  101021:	c7 04 24 a0 ed 17 00 	movl   $0x17eda0,(%esp)
  101028:	e8 5d 2a 00 00       	call   103a8a <spinlock_acquire>
  pageinfo *pi = mem_freelist;
  10102d:	a1 80 ed 17 00       	mov    0x17ed80,%eax
  101032:	89 45 fc             	mov    %eax,0xfffffffc(%ebp)
  if (pi != NULL) {
  101035:	83 7d fc 00          	cmpl   $0x0,0xfffffffc(%ebp)
  101039:	74 13                	je     10104e <mem_alloc+0x33>
    mem_freelist = pi->free_next; // move front of list to next pageinfo
  10103b:	8b 45 fc             	mov    0xfffffffc(%ebp),%eax
  10103e:	8b 00                	mov    (%eax),%eax
  101040:	a3 80 ed 17 00       	mov    %eax,0x17ed80
    pi->free_next = NULL; // remove pointer to next item
  101045:	8b 45 fc             	mov    0xfffffffc(%ebp),%eax
  101048:	c7 00 00 00 00 00    	movl   $0x0,(%eax)
  }
  spinlock_release(&page_spinlock);
  10104e:	c7 04 24 a0 ed 17 00 	movl   $0x17eda0,(%esp)
  101055:	e8 2b 2b 00 00       	call   103b85 <spinlock_release>
  return pi;
  10105a:	8b 45 fc             	mov    0xfffffffc(%ebp),%eax
}
  10105d:	c9                   	leave  
  10105e:	c3                   	ret    

0010105f <mem_free>:

//
// Return a page to the free list, given its pageinfo pointer.
// (This function should only be called when pp->pp_ref reaches 0.)
//
void
mem_free(pageinfo *pi)
{
  10105f:	55                   	push   %ebp
  101060:	89 e5                	mov    %esp,%ebp
  101062:	83 ec 18             	sub    $0x18,%esp
	// Fill this function in.
	//panic("mem_free not implemented.");
  // do not free in use, or already free pages
  if (pi->refcount != 0)
  101065:	8b 45 08             	mov    0x8(%ebp),%eax
  101068:	8b 40 04             	mov    0x4(%eax),%eax
  10106b:	85 c0                	test   %eax,%eax
  10106d:	74 1c                	je     10108b <mem_free+0x2c>
    panic("mem_free: refcound does not equal zero");
  10106f:	c7 44 24 08 88 c0 10 	movl   $0x10c088,0x8(%esp)
  101076:	00 
  101077:	c7 44 24 04 9f 00 00 	movl   $0x9f,0x4(%esp)
  10107e:	00 
  10107f:	c7 04 24 04 c0 10 00 	movl   $0x10c004,(%esp)
  101086:	e8 ad f8 ff ff       	call   100938 <debug_panic>
  if (pi->free_next != NULL)
  10108b:	8b 45 08             	mov    0x8(%ebp),%eax
  10108e:	8b 00                	mov    (%eax),%eax
  101090:	85 c0                	test   %eax,%eax
  101092:	74 1c                	je     1010b0 <mem_free+0x51>
    panic("mem_free: attempt to free already free page");
  101094:	c7 44 24 08 b0 c0 10 	movl   $0x10c0b0,0x8(%esp)
  10109b:	00 
  10109c:	c7 44 24 04 a1 00 00 	movl   $0xa1,0x4(%esp)
  1010a3:	00 
  1010a4:	c7 04 24 04 c0 10 00 	movl   $0x10c004,(%esp)
  1010ab:	e8 88 f8 ff ff       	call   100938 <debug_panic>

  spinlock_acquire(&page_spinlock);
  1010b0:	c7 04 24 a0 ed 17 00 	movl   $0x17eda0,(%esp)
  1010b7:	e8 ce 29 00 00       	call   103a8a <spinlock_acquire>
  pi->free_next = mem_freelist; // point this to the list
  1010bc:	a1 80 ed 17 00       	mov    0x17ed80,%eax
  1010c1:	8b 55 08             	mov    0x8(%ebp),%edx
  1010c4:	89 02                	mov    %eax,(%edx)
  mem_freelist = pi; // point the front of the list to this
  1010c6:	8b 45 08             	mov    0x8(%ebp),%eax
  1010c9:	a3 80 ed 17 00       	mov    %eax,0x17ed80
  spinlock_release(&page_spinlock);
  1010ce:	c7 04 24 a0 ed 17 00 	movl   $0x17eda0,(%esp)
  1010d5:	e8 ab 2a 00 00       	call   103b85 <spinlock_release>
}
  1010da:	c9                   	leave  
  1010db:	c3                   	ret    

001010dc <mem_check>:

//
// Check the physical page allocator (mem_alloc(), mem_free())
// for correct operation after initialization via mem_init().
//
void
mem_check()
{
  1010dc:	55                   	push   %ebp
  1010dd:	89 e5                	mov    %esp,%ebp
  1010df:	83 ec 38             	sub    $0x38,%esp
	pageinfo *pp, *pp0, *pp1, *pp2;
	pageinfo *fl;
	int i;

        // if there's a page that shouldn't be on
        // the free list, try to make sure it
        // eventually causes trouble.
	int freepages = 0;
  1010e2:	c7 45 fc 00 00 00 00 	movl   $0x0,0xfffffffc(%ebp)
	for (pp = mem_freelist; pp != 0; pp = pp->free_next) {
  1010e9:	a1 80 ed 17 00       	mov    0x17ed80,%eax
  1010ee:	89 45 e4             	mov    %eax,0xffffffe4(%ebp)
  1010f1:	eb 35                	jmp    101128 <mem_check+0x4c>
		memset(mem_pi2ptr(pp), 0x97, 128);
  1010f3:	8b 55 e4             	mov    0xffffffe4(%ebp),%edx
  1010f6:	a1 dc ed 17 00       	mov    0x17eddc,%eax
  1010fb:	89 d1                	mov    %edx,%ecx
  1010fd:	29 c1                	sub    %eax,%ecx
  1010ff:	89 c8                	mov    %ecx,%eax
  101101:	c1 e0 09             	shl    $0x9,%eax
  101104:	c7 44 24 08 80 00 00 	movl   $0x80,0x8(%esp)
  10110b:	00 
  10110c:	c7 44 24 04 97 00 00 	movl   $0x97,0x4(%esp)
  101113:	00 
  101114:	89 04 24             	mov    %eax,(%esp)
  101117:	e8 ed a6 00 00       	call   10b809 <memset>
		freepages++;
  10111c:	83 45 fc 01          	addl   $0x1,0xfffffffc(%ebp)
  101120:	8b 45 e4             	mov    0xffffffe4(%ebp),%eax
  101123:	8b 00                	mov    (%eax),%eax
  101125:	89 45 e4             	mov    %eax,0xffffffe4(%ebp)
  101128:	83 7d e4 00          	cmpl   $0x0,0xffffffe4(%ebp)
  10112c:	75 c5                	jne    1010f3 <mem_check+0x17>
	}
	cprintf("mem_check: %d free pages\n", freepages);
  10112e:	8b 45 fc             	mov    0xfffffffc(%ebp),%eax
  101131:	89 44 24 04          	mov    %eax,0x4(%esp)
  101135:	c7 04 24 dc c0 10 00 	movl   $0x10c0dc,(%esp)
  10113c:	e8 44 a3 00 00       	call   10b485 <cprintf>
	assert(freepages < mem_npage);	// can't have more free than total!
  101141:	8b 55 fc             	mov    0xfffffffc(%ebp),%edx
  101144:	a1 84 ed 17 00       	mov    0x17ed84,%eax
  101149:	39 c2                	cmp    %eax,%edx
  10114b:	72 24                	jb     101171 <mem_check+0x95>
  10114d:	c7 44 24 0c f6 c0 10 	movl   $0x10c0f6,0xc(%esp)
  101154:	00 
  101155:	c7 44 24 08 63 c0 10 	movl   $0x10c063,0x8(%esp)
  10115c:	00 
  10115d:	c7 44 24 04 bd 00 00 	movl   $0xbd,0x4(%esp)
  101164:	00 
  101165:	c7 04 24 04 c0 10 00 	movl   $0x10c004,(%esp)
  10116c:	e8 c7 f7 ff ff       	call   100938 <debug_panic>
	assert(freepages > 16000);	// make sure it's in the right ballpark
  101171:	81 7d fc 80 3e 00 00 	cmpl   $0x3e80,0xfffffffc(%ebp)
  101178:	7f 24                	jg     10119e <mem_check+0xc2>
  10117a:	c7 44 24 0c 0c c1 10 	movl   $0x10c10c,0xc(%esp)
  101181:	00 
  101182:	c7 44 24 08 63 c0 10 	movl   $0x10c063,0x8(%esp)
  101189:	00 
  10118a:	c7 44 24 04 be 00 00 	movl   $0xbe,0x4(%esp)
  101191:	00 
  101192:	c7 04 24 04 c0 10 00 	movl   $0x10c004,(%esp)
  101199:	e8 9a f7 ff ff       	call   100938 <debug_panic>

	// should be able to allocate three pages
	pp0 = pp1 = pp2 = 0;
  10119e:	c7 45 f0 00 00 00 00 	movl   $0x0,0xfffffff0(%ebp)
  1011a5:	8b 45 f0             	mov    0xfffffff0(%ebp),%eax
  1011a8:	89 45 ec             	mov    %eax,0xffffffec(%ebp)
  1011ab:	8b 45 ec             	mov    0xffffffec(%ebp),%eax
  1011ae:	89 45 e8             	mov    %eax,0xffffffe8(%ebp)
	pp0 = mem_alloc(); assert(pp0 != 0);
  1011b1:	e8 65 fe ff ff       	call   10101b <mem_alloc>
  1011b6:	89 45 e8             	mov    %eax,0xffffffe8(%ebp)
  1011b9:	83 7d e8 00          	cmpl   $0x0,0xffffffe8(%ebp)
  1011bd:	75 24                	jne    1011e3 <mem_check+0x107>
  1011bf:	c7 44 24 0c 1e c1 10 	movl   $0x10c11e,0xc(%esp)
  1011c6:	00 
  1011c7:	c7 44 24 08 63 c0 10 	movl   $0x10c063,0x8(%esp)
  1011ce:	00 
  1011cf:	c7 44 24 04 c2 00 00 	movl   $0xc2,0x4(%esp)
  1011d6:	00 
  1011d7:	c7 04 24 04 c0 10 00 	movl   $0x10c004,(%esp)
  1011de:	e8 55 f7 ff ff       	call   100938 <debug_panic>
	pp1 = mem_alloc(); assert(pp1 != 0);
  1011e3:	e8 33 fe ff ff       	call   10101b <mem_alloc>
  1011e8:	89 45 ec             	mov    %eax,0xffffffec(%ebp)
  1011eb:	83 7d ec 00          	cmpl   $0x0,0xffffffec(%ebp)
  1011ef:	75 24                	jne    101215 <mem_check+0x139>
  1011f1:	c7 44 24 0c 27 c1 10 	movl   $0x10c127,0xc(%esp)
  1011f8:	00 
  1011f9:	c7 44 24 08 63 c0 10 	movl   $0x10c063,0x8(%esp)
  101200:	00 
  101201:	c7 44 24 04 c3 00 00 	movl   $0xc3,0x4(%esp)
  101208:	00 
  101209:	c7 04 24 04 c0 10 00 	movl   $0x10c004,(%esp)
  101210:	e8 23 f7 ff ff       	call   100938 <debug_panic>
	pp2 = mem_alloc(); assert(pp2 != 0);
  101215:	e8 01 fe ff ff       	call   10101b <mem_alloc>
  10121a:	89 45 f0             	mov    %eax,0xfffffff0(%ebp)
  10121d:	83 7d f0 00          	cmpl   $0x0,0xfffffff0(%ebp)
  101221:	75 24                	jne    101247 <mem_check+0x16b>
  101223:	c7 44 24 0c 30 c1 10 	movl   $0x10c130,0xc(%esp)
  10122a:	00 
  10122b:	c7 44 24 08 63 c0 10 	movl   $0x10c063,0x8(%esp)
  101232:	00 
  101233:	c7 44 24 04 c4 00 00 	movl   $0xc4,0x4(%esp)
  10123a:	00 
  10123b:	c7 04 24 04 c0 10 00 	movl   $0x10c004,(%esp)
  101242:	e8 f1 f6 ff ff       	call   100938 <debug_panic>

	assert(pp0);
  101247:	83 7d e8 00          	cmpl   $0x0,0xffffffe8(%ebp)
  10124b:	75 24                	jne    101271 <mem_check+0x195>
  10124d:	c7 44 24 0c 39 c1 10 	movl   $0x10c139,0xc(%esp)
  101254:	00 
  101255:	c7 44 24 08 63 c0 10 	movl   $0x10c063,0x8(%esp)
  10125c:	00 
  10125d:	c7 44 24 04 c6 00 00 	movl   $0xc6,0x4(%esp)
  101264:	00 
  101265:	c7 04 24 04 c0 10 00 	movl   $0x10c004,(%esp)
  10126c:	e8 c7 f6 ff ff       	call   100938 <debug_panic>
	assert(pp1 && pp1 != pp0);
  101271:	83 7d ec 00          	cmpl   $0x0,0xffffffec(%ebp)
  101275:	74 08                	je     10127f <mem_check+0x1a3>
  101277:	8b 45 ec             	mov    0xffffffec(%ebp),%eax
  10127a:	3b 45 e8             	cmp    0xffffffe8(%ebp),%eax
  10127d:	75 24                	jne    1012a3 <mem_check+0x1c7>
  10127f:	c7 44 24 0c 3d c1 10 	movl   $0x10c13d,0xc(%esp)
  101286:	00 
  101287:	c7 44 24 08 63 c0 10 	movl   $0x10c063,0x8(%esp)
  10128e:	00 
  10128f:	c7 44 24 04 c7 00 00 	movl   $0xc7,0x4(%esp)
  101296:	00 
  101297:	c7 04 24 04 c0 10 00 	movl   $0x10c004,(%esp)
  10129e:	e8 95 f6 ff ff       	call   100938 <debug_panic>
	assert(pp2 && pp2 != pp1 && pp2 != pp0);
  1012a3:	83 7d f0 00          	cmpl   $0x0,0xfffffff0(%ebp)
  1012a7:	74 10                	je     1012b9 <mem_check+0x1dd>
  1012a9:	8b 45 f0             	mov    0xfffffff0(%ebp),%eax
  1012ac:	3b 45 ec             	cmp    0xffffffec(%ebp),%eax
  1012af:	74 08                	je     1012b9 <mem_check+0x1dd>
  1012b1:	8b 45 f0             	mov    0xfffffff0(%ebp),%eax
  1012b4:	3b 45 e8             	cmp    0xffffffe8(%ebp),%eax
  1012b7:	75 24                	jne    1012dd <mem_check+0x201>
  1012b9:	c7 44 24 0c 50 c1 10 	movl   $0x10c150,0xc(%esp)
  1012c0:	00 
  1012c1:	c7 44 24 08 63 c0 10 	movl   $0x10c063,0x8(%esp)
  1012c8:	00 
  1012c9:	c7 44 24 04 c8 00 00 	movl   $0xc8,0x4(%esp)
  1012d0:	00 
  1012d1:	c7 04 24 04 c0 10 00 	movl   $0x10c004,(%esp)
  1012d8:	e8 5b f6 ff ff       	call   100938 <debug_panic>
        assert(mem_pi2phys(pp0) < mem_npage*PAGESIZE);
  1012dd:	8b 55 e8             	mov    0xffffffe8(%ebp),%edx
  1012e0:	a1 dc ed 17 00       	mov    0x17eddc,%eax
  1012e5:	89 d1                	mov    %edx,%ecx
  1012e7:	29 c1                	sub    %eax,%ecx
  1012e9:	89 c8                	mov    %ecx,%eax
  1012eb:	c1 e0 09             	shl    $0x9,%eax
  1012ee:	89 c2                	mov    %eax,%edx
  1012f0:	a1 84 ed 17 00       	mov    0x17ed84,%eax
  1012f5:	c1 e0 0c             	shl    $0xc,%eax
  1012f8:	39 c2                	cmp    %eax,%edx
  1012fa:	72 24                	jb     101320 <mem_check+0x244>
  1012fc:	c7 44 24 0c 70 c1 10 	movl   $0x10c170,0xc(%esp)
  101303:	00 
  101304:	c7 44 24 08 63 c0 10 	movl   $0x10c063,0x8(%esp)
  10130b:	00 
  10130c:	c7 44 24 04 c9 00 00 	movl   $0xc9,0x4(%esp)
  101313:	00 
  101314:	c7 04 24 04 c0 10 00 	movl   $0x10c004,(%esp)
  10131b:	e8 18 f6 ff ff       	call   100938 <debug_panic>
        assert(mem_pi2phys(pp1) < mem_npage*PAGESIZE);
  101320:	8b 55 ec             	mov    0xffffffec(%ebp),%edx
  101323:	a1 dc ed 17 00       	mov    0x17eddc,%eax
  101328:	89 d1                	mov    %edx,%ecx
  10132a:	29 c1                	sub    %eax,%ecx
  10132c:	89 c8                	mov    %ecx,%eax
  10132e:	c1 e0 09             	shl    $0x9,%eax
  101331:	89 c2                	mov    %eax,%edx
  101333:	a1 84 ed 17 00       	mov    0x17ed84,%eax
  101338:	c1 e0 0c             	shl    $0xc,%eax
  10133b:	39 c2                	cmp    %eax,%edx
  10133d:	72 24                	jb     101363 <mem_check+0x287>
  10133f:	c7 44 24 0c 98 c1 10 	movl   $0x10c198,0xc(%esp)
  101346:	00 
  101347:	c7 44 24 08 63 c0 10 	movl   $0x10c063,0x8(%esp)
  10134e:	00 
  10134f:	c7 44 24 04 ca 00 00 	movl   $0xca,0x4(%esp)
  101356:	00 
  101357:	c7 04 24 04 c0 10 00 	movl   $0x10c004,(%esp)
  10135e:	e8 d5 f5 ff ff       	call   100938 <debug_panic>
        assert(mem_pi2phys(pp2) < mem_npage*PAGESIZE);
  101363:	8b 55 f0             	mov    0xfffffff0(%ebp),%edx
  101366:	a1 dc ed 17 00       	mov    0x17eddc,%eax
  10136b:	89 d1                	mov    %edx,%ecx
  10136d:	29 c1                	sub    %eax,%ecx
  10136f:	89 c8                	mov    %ecx,%eax
  101371:	c1 e0 09             	shl    $0x9,%eax
  101374:	89 c2                	mov    %eax,%edx
  101376:	a1 84 ed 17 00       	mov    0x17ed84,%eax
  10137b:	c1 e0 0c             	shl    $0xc,%eax
  10137e:	39 c2                	cmp    %eax,%edx
  101380:	72 24                	jb     1013a6 <mem_check+0x2ca>
  101382:	c7 44 24 0c c0 c1 10 	movl   $0x10c1c0,0xc(%esp)
  101389:	00 
  10138a:	c7 44 24 08 63 c0 10 	movl   $0x10c063,0x8(%esp)
  101391:	00 
  101392:	c7 44 24 04 cb 00 00 	movl   $0xcb,0x4(%esp)
  101399:	00 
  10139a:	c7 04 24 04 c0 10 00 	movl   $0x10c004,(%esp)
  1013a1:	e8 92 f5 ff ff       	call   100938 <debug_panic>

	// temporarily steal the rest of the free pages
	fl = mem_freelist;
  1013a6:	a1 80 ed 17 00       	mov    0x17ed80,%eax
  1013ab:	89 45 f4             	mov    %eax,0xfffffff4(%ebp)
	mem_freelist = 0;
  1013ae:	c7 05 80 ed 17 00 00 	movl   $0x0,0x17ed80
  1013b5:	00 00 00 

	// should be no free memory
	assert(mem_alloc() == 0);
  1013b8:	e8 5e fc ff ff       	call   10101b <mem_alloc>
  1013bd:	85 c0                	test   %eax,%eax
  1013bf:	74 24                	je     1013e5 <mem_check+0x309>
  1013c1:	c7 44 24 0c e6 c1 10 	movl   $0x10c1e6,0xc(%esp)
  1013c8:	00 
  1013c9:	c7 44 24 08 63 c0 10 	movl   $0x10c063,0x8(%esp)
  1013d0:	00 
  1013d1:	c7 44 24 04 d2 00 00 	movl   $0xd2,0x4(%esp)
  1013d8:	00 
  1013d9:	c7 04 24 04 c0 10 00 	movl   $0x10c004,(%esp)
  1013e0:	e8 53 f5 ff ff       	call   100938 <debug_panic>

        // free and re-allocate?
        mem_free(pp0);
  1013e5:	8b 45 e8             	mov    0xffffffe8(%ebp),%eax
  1013e8:	89 04 24             	mov    %eax,(%esp)
  1013eb:	e8 6f fc ff ff       	call   10105f <mem_free>
        mem_free(pp1);
  1013f0:	8b 45 ec             	mov    0xffffffec(%ebp),%eax
  1013f3:	89 04 24             	mov    %eax,(%esp)
  1013f6:	e8 64 fc ff ff       	call   10105f <mem_free>
        mem_free(pp2);
  1013fb:	8b 45 f0             	mov    0xfffffff0(%ebp),%eax
  1013fe:	89 04 24             	mov    %eax,(%esp)
  101401:	e8 59 fc ff ff       	call   10105f <mem_free>
	pp0 = pp1 = pp2 = 0;
  101406:	c7 45 f0 00 00 00 00 	movl   $0x0,0xfffffff0(%ebp)
  10140d:	8b 45 f0             	mov    0xfffffff0(%ebp),%eax
  101410:	89 45 ec             	mov    %eax,0xffffffec(%ebp)
  101413:	8b 45 ec             	mov    0xffffffec(%ebp),%eax
  101416:	89 45 e8             	mov    %eax,0xffffffe8(%ebp)
	pp0 = mem_alloc(); assert(pp0 != 0);
  101419:	e8 fd fb ff ff       	call   10101b <mem_alloc>
  10141e:	89 45 e8             	mov    %eax,0xffffffe8(%ebp)
  101421:	83 7d e8 00          	cmpl   $0x0,0xffffffe8(%ebp)
  101425:	75 24                	jne    10144b <mem_check+0x36f>
  101427:	c7 44 24 0c 1e c1 10 	movl   $0x10c11e,0xc(%esp)
  10142e:	00 
  10142f:	c7 44 24 08 63 c0 10 	movl   $0x10c063,0x8(%esp)
  101436:	00 
  101437:	c7 44 24 04 d9 00 00 	movl   $0xd9,0x4(%esp)
  10143e:	00 
  10143f:	c7 04 24 04 c0 10 00 	movl   $0x10c004,(%esp)
  101446:	e8 ed f4 ff ff       	call   100938 <debug_panic>
	pp1 = mem_alloc(); assert(pp1 != 0);
  10144b:	e8 cb fb ff ff       	call   10101b <mem_alloc>
  101450:	89 45 ec             	mov    %eax,0xffffffec(%ebp)
  101453:	83 7d ec 00          	cmpl   $0x0,0xffffffec(%ebp)
  101457:	75 24                	jne    10147d <mem_check+0x3a1>
  101459:	c7 44 24 0c 27 c1 10 	movl   $0x10c127,0xc(%esp)
  101460:	00 
  101461:	c7 44 24 08 63 c0 10 	movl   $0x10c063,0x8(%esp)
  101468:	00 
  101469:	c7 44 24 04 da 00 00 	movl   $0xda,0x4(%esp)
  101470:	00 
  101471:	c7 04 24 04 c0 10 00 	movl   $0x10c004,(%esp)
  101478:	e8 bb f4 ff ff       	call   100938 <debug_panic>
	pp2 = mem_alloc(); assert(pp2 != 0);
  10147d:	e8 99 fb ff ff       	call   10101b <mem_alloc>
  101482:	89 45 f0             	mov    %eax,0xfffffff0(%ebp)
  101485:	83 7d f0 00          	cmpl   $0x0,0xfffffff0(%ebp)
  101489:	75 24                	jne    1014af <mem_check+0x3d3>
  10148b:	c7 44 24 0c 30 c1 10 	movl   $0x10c130,0xc(%esp)
  101492:	00 
  101493:	c7 44 24 08 63 c0 10 	movl   $0x10c063,0x8(%esp)
  10149a:	00 
  10149b:	c7 44 24 04 db 00 00 	movl   $0xdb,0x4(%esp)
  1014a2:	00 
  1014a3:	c7 04 24 04 c0 10 00 	movl   $0x10c004,(%esp)
  1014aa:	e8 89 f4 ff ff       	call   100938 <debug_panic>
	assert(pp0);
  1014af:	83 7d e8 00          	cmpl   $0x0,0xffffffe8(%ebp)
  1014b3:	75 24                	jne    1014d9 <mem_check+0x3fd>
  1014b5:	c7 44 24 0c 39 c1 10 	movl   $0x10c139,0xc(%esp)
  1014bc:	00 
  1014bd:	c7 44 24 08 63 c0 10 	movl   $0x10c063,0x8(%esp)
  1014c4:	00 
  1014c5:	c7 44 24 04 dc 00 00 	movl   $0xdc,0x4(%esp)
  1014cc:	00 
  1014cd:	c7 04 24 04 c0 10 00 	movl   $0x10c004,(%esp)
  1014d4:	e8 5f f4 ff ff       	call   100938 <debug_panic>
	assert(pp1 && pp1 != pp0);
  1014d9:	83 7d ec 00          	cmpl   $0x0,0xffffffec(%ebp)
  1014dd:	74 08                	je     1014e7 <mem_check+0x40b>
  1014df:	8b 45 ec             	mov    0xffffffec(%ebp),%eax
  1014e2:	3b 45 e8             	cmp    0xffffffe8(%ebp),%eax
  1014e5:	75 24                	jne    10150b <mem_check+0x42f>
  1014e7:	c7 44 24 0c 3d c1 10 	movl   $0x10c13d,0xc(%esp)
  1014ee:	00 
  1014ef:	c7 44 24 08 63 c0 10 	movl   $0x10c063,0x8(%esp)
  1014f6:	00 
  1014f7:	c7 44 24 04 dd 00 00 	movl   $0xdd,0x4(%esp)
  1014fe:	00 
  1014ff:	c7 04 24 04 c0 10 00 	movl   $0x10c004,(%esp)
  101506:	e8 2d f4 ff ff       	call   100938 <debug_panic>
	assert(pp2 && pp2 != pp1 && pp2 != pp0);
  10150b:	83 7d f0 00          	cmpl   $0x0,0xfffffff0(%ebp)
  10150f:	74 10                	je     101521 <mem_check+0x445>
  101511:	8b 45 f0             	mov    0xfffffff0(%ebp),%eax
  101514:	3b 45 ec             	cmp    0xffffffec(%ebp),%eax
  101517:	74 08                	je     101521 <mem_check+0x445>
  101519:	8b 45 f0             	mov    0xfffffff0(%ebp),%eax
  10151c:	3b 45 e8             	cmp    0xffffffe8(%ebp),%eax
  10151f:	75 24                	jne    101545 <mem_check+0x469>
  101521:	c7 44 24 0c 50 c1 10 	movl   $0x10c150,0xc(%esp)
  101528:	00 
  101529:	c7 44 24 08 63 c0 10 	movl   $0x10c063,0x8(%esp)
  101530:	00 
  101531:	c7 44 24 04 de 00 00 	movl   $0xde,0x4(%esp)
  101538:	00 
  101539:	c7 04 24 04 c0 10 00 	movl   $0x10c004,(%esp)
  101540:	e8 f3 f3 ff ff       	call   100938 <debug_panic>
	assert(mem_alloc() == 0);
  101545:	e8 d1 fa ff ff       	call   10101b <mem_alloc>
  10154a:	85 c0                	test   %eax,%eax
  10154c:	74 24                	je     101572 <mem_check+0x496>
  10154e:	c7 44 24 0c e6 c1 10 	movl   $0x10c1e6,0xc(%esp)
  101555:	00 
  101556:	c7 44 24 08 63 c0 10 	movl   $0x10c063,0x8(%esp)
  10155d:	00 
  10155e:	c7 44 24 04 df 00 00 	movl   $0xdf,0x4(%esp)
  101565:	00 
  101566:	c7 04 24 04 c0 10 00 	movl   $0x10c004,(%esp)
  10156d:	e8 c6 f3 ff ff       	call   100938 <debug_panic>

	// give free list back
	mem_freelist = fl;
  101572:	8b 45 f4             	mov    0xfffffff4(%ebp),%eax
  101575:	a3 80 ed 17 00       	mov    %eax,0x17ed80

	// free the pages we took
	mem_free(pp0);
  10157a:	8b 45 e8             	mov    0xffffffe8(%ebp),%eax
  10157d:	89 04 24             	mov    %eax,(%esp)
  101580:	e8 da fa ff ff       	call   10105f <mem_free>
	mem_free(pp1);
  101585:	8b 45 ec             	mov    0xffffffec(%ebp),%eax
  101588:	89 04 24             	mov    %eax,(%esp)
  10158b:	e8 cf fa ff ff       	call   10105f <mem_free>
	mem_free(pp2);
  101590:	8b 45 f0             	mov    0xfffffff0(%ebp),%eax
  101593:	89 04 24             	mov    %eax,(%esp)
  101596:	e8 c4 fa ff ff       	call   10105f <mem_free>

	cprintf("mem_check() succeeded!\n");
  10159b:	c7 04 24 f7 c1 10 00 	movl   $0x10c1f7,(%esp)
  1015a2:	e8 de 9e 00 00       	call   10b485 <cprintf>
}
  1015a7:	c9                   	leave  
  1015a8:	c3                   	ret    
  1015a9:	90                   	nop    
  1015aa:	90                   	nop    
  1015ab:	90                   	nop    

001015ac <cpu_init>:
};


void cpu_init()
{
  1015ac:	55                   	push   %ebp
  1015ad:	89 e5                	mov    %esp,%ebp
  1015af:	53                   	push   %ebx
  1015b0:	83 ec 14             	sub    $0x14,%esp
	cpu *c = cpu_cur();
  1015b3:	e8 23 01 00 00       	call   1016db <cpu_cur>
  1015b8:	89 45 f4             	mov    %eax,0xfffffff4(%ebp)

  c->tss.ts_esp0 = (uint32_t) c->kstackhi;
  1015bb:	8b 45 f4             	mov    0xfffffff4(%ebp),%eax
  1015be:	05 00 10 00 00       	add    $0x1000,%eax
  1015c3:	89 c2                	mov    %eax,%edx
  1015c5:	8b 45 f4             	mov    0xfffffff4(%ebp),%eax
  1015c8:	89 50 3c             	mov    %edx,0x3c(%eax)
  c->tss.ts_ss0 = CPU_GDT_KDATA;
  1015cb:	8b 45 f4             	mov    0xfffffff4(%ebp),%eax
  1015ce:	66 c7 40 40 10 00    	movw   $0x10,0x40(%eax)

  c->gdt[CPU_GDT_TSS >> 3] = SEGDESC16(0, STS_T32A, (uint32_t) (&c->tss),
  1015d4:	8b 45 f4             	mov    0xfffffff4(%ebp),%eax
  1015d7:	83 c0 38             	add    $0x38,%eax
  1015da:	89 c2                	mov    %eax,%edx
  1015dc:	8b 45 f4             	mov    0xfffffff4(%ebp),%eax
  1015df:	83 c0 38             	add    $0x38,%eax
  1015e2:	c1 e8 10             	shr    $0x10,%eax
  1015e5:	89 c1                	mov    %eax,%ecx
  1015e7:	8b 45 f4             	mov    0xfffffff4(%ebp),%eax
  1015ea:	83 c0 38             	add    $0x38,%eax
  1015ed:	c1 e8 18             	shr    $0x18,%eax
  1015f0:	89 c3                	mov    %eax,%ebx
  1015f2:	8b 45 f4             	mov    0xfffffff4(%ebp),%eax
  1015f5:	66 c7 40 30 67 00    	movw   $0x67,0x30(%eax)
  1015fb:	8b 45 f4             	mov    0xfffffff4(%ebp),%eax
  1015fe:	66 89 50 32          	mov    %dx,0x32(%eax)
  101602:	8b 45 f4             	mov    0xfffffff4(%ebp),%eax
  101605:	88 48 34             	mov    %cl,0x34(%eax)
  101608:	8b 55 f4             	mov    0xfffffff4(%ebp),%edx
  10160b:	0f b6 42 35          	movzbl 0x35(%edx),%eax
  10160f:	83 e0 f0             	and    $0xfffffff0,%eax
  101612:	83 c8 09             	or     $0x9,%eax
  101615:	88 42 35             	mov    %al,0x35(%edx)
  101618:	8b 55 f4             	mov    0xfffffff4(%ebp),%edx
  10161b:	0f b6 42 35          	movzbl 0x35(%edx),%eax
  10161f:	83 e0 ef             	and    $0xffffffef,%eax
  101622:	88 42 35             	mov    %al,0x35(%edx)
  101625:	8b 55 f4             	mov    0xfffffff4(%ebp),%edx
  101628:	0f b6 42 35          	movzbl 0x35(%edx),%eax
  10162c:	83 e0 9f             	and    $0xffffff9f,%eax
  10162f:	88 42 35             	mov    %al,0x35(%edx)
  101632:	8b 55 f4             	mov    0xfffffff4(%ebp),%edx
  101635:	0f b6 42 35          	movzbl 0x35(%edx),%eax
  101639:	83 c8 80             	or     $0xffffff80,%eax
  10163c:	88 42 35             	mov    %al,0x35(%edx)
  10163f:	8b 55 f4             	mov    0xfffffff4(%ebp),%edx
  101642:	0f b6 42 36          	movzbl 0x36(%edx),%eax
  101646:	83 e0 f0             	and    $0xfffffff0,%eax
  101649:	88 42 36             	mov    %al,0x36(%edx)
  10164c:	8b 55 f4             	mov    0xfffffff4(%ebp),%edx
  10164f:	0f b6 42 36          	movzbl 0x36(%edx),%eax
  101653:	83 e0 ef             	and    $0xffffffef,%eax
  101656:	88 42 36             	mov    %al,0x36(%edx)
  101659:	8b 55 f4             	mov    0xfffffff4(%ebp),%edx
  10165c:	0f b6 42 36          	movzbl 0x36(%edx),%eax
  101660:	83 e0 df             	and    $0xffffffdf,%eax
  101663:	88 42 36             	mov    %al,0x36(%edx)
  101666:	8b 55 f4             	mov    0xfffffff4(%ebp),%edx
  101669:	0f b6 42 36          	movzbl 0x36(%edx),%eax
  10166d:	83 c8 40             	or     $0x40,%eax
  101670:	88 42 36             	mov    %al,0x36(%edx)
  101673:	8b 55 f4             	mov    0xfffffff4(%ebp),%edx
  101676:	0f b6 42 36          	movzbl 0x36(%edx),%eax
  10167a:	83 e0 7f             	and    $0x7f,%eax
  10167d:	88 42 36             	mov    %al,0x36(%edx)
  101680:	8b 45 f4             	mov    0xfffffff4(%ebp),%eax
  101683:	88 58 37             	mov    %bl,0x37(%eax)
                              sizeof(taskstate)-1, 0);

	// Load the GDT
	struct pseudodesc gdt_pd = {
		sizeof(c->gdt) - 1, (uint32_t) c->gdt };
  101686:	8b 45 f4             	mov    0xfffffff4(%ebp),%eax
  101689:	66 c7 45 ee 37 00    	movw   $0x37,0xffffffee(%ebp)
  10168f:	89 45 f0             	mov    %eax,0xfffffff0(%ebp)
	asm volatile("lgdt %0" : : "m" (gdt_pd));
  101692:	0f 01 55 ee          	lgdtl  0xffffffee(%ebp)

	// Reload all segment registers.
	asm volatile("movw %%ax,%%gs" :: "a" (CPU_GDT_UDATA|3));
  101696:	b8 23 00 00 00       	mov    $0x23,%eax
  10169b:	8e e8                	movl   %eax,%gs
	asm volatile("movw %%ax,%%fs" :: "a" (CPU_GDT_UDATA|3));
  10169d:	b8 23 00 00 00       	mov    $0x23,%eax
  1016a2:	8e e0                	movl   %eax,%fs
	asm volatile("movw %%ax,%%es" :: "a" (CPU_GDT_KDATA));
  1016a4:	b8 10 00 00 00       	mov    $0x10,%eax
  1016a9:	8e c0                	movl   %eax,%es
	asm volatile("movw %%ax,%%ds" :: "a" (CPU_GDT_KDATA));
  1016ab:	b8 10 00 00 00       	mov    $0x10,%eax
  1016b0:	8e d8                	movl   %eax,%ds
	asm volatile("movw %%ax,%%ss" :: "a" (CPU_GDT_KDATA));
  1016b2:	b8 10 00 00 00       	mov    $0x10,%eax
  1016b7:	8e d0                	movl   %eax,%ss
	asm volatile("ljmp %0,$1f\n 1:\n" :: "i" (CPU_GDT_KCODE)); // reload CS
  1016b9:	ea c0 16 10 00 08 00 	ljmp   $0x8,$0x1016c0

	// We don't need an LDT.
	asm volatile("lldt %%ax" :: "a" (0));
  1016c0:	b8 00 00 00 00       	mov    $0x0,%eax
  1016c5:	0f 00 d0             	lldt   %ax
  1016c8:	66 c7 45 fa 30 00    	movw   $0x30,0xfffffffa(%ebp)

static gcc_inline void
ltr(uint16_t sel)
{
	__asm __volatile("ltr %0" : : "r" (sel));
  1016ce:	0f b7 45 fa          	movzwl 0xfffffffa(%ebp),%eax
  1016d2:	0f 00 d8             	ltr    %ax
  ltr(CPU_GDT_TSS);
}
  1016d5:	83 c4 14             	add    $0x14,%esp
  1016d8:	5b                   	pop    %ebx
  1016d9:	5d                   	pop    %ebp
  1016da:	c3                   	ret    

001016db <cpu_cur>:

// Find the CPU struct representing the current CPU.
// It always resides at the bottom of the page containing the CPU's stack.
static inline cpu *
cpu_cur() {
  1016db:	55                   	push   %ebp
  1016dc:	89 e5                	mov    %esp,%ebp
  1016de:	83 ec 28             	sub    $0x28,%esp
static gcc_inline uint32_t
read_esp(void)
{
        uint32_t esp;
        __asm __volatile("movl %%esp,%0" : "=rm" (esp));
  1016e1:	89 65 fc             	mov    %esp,0xfffffffc(%ebp)
        return esp;
  1016e4:	8b 45 fc             	mov    0xfffffffc(%ebp),%eax
// Find the CPU struct representing the current CPU.
// It always resides at the bottom of the page containing the CPU's stack.
static inline cpu *
cpu_cur() {
	cpu *c = (cpu*)ROUNDDOWN(read_esp(), PAGESIZE);
  1016e7:	89 45 f8             	mov    %eax,0xfffffff8(%ebp)
  1016ea:	8b 45 f8             	mov    0xfffffff8(%ebp),%eax
  1016ed:	25 00 f0 ff ff       	and    $0xfffff000,%eax
  1016f2:	89 45 f4             	mov    %eax,0xfffffff4(%ebp)
	assert(c->magic == CPU_MAGIC);
  1016f5:	8b 45 f4             	mov    0xfffffff4(%ebp),%eax
  1016f8:	8b 80 b8 00 00 00    	mov    0xb8(%eax),%eax
  1016fe:	3d 32 54 76 98       	cmp    $0x98765432,%eax
  101703:	74 24                	je     101729 <cpu_cur+0x4e>
  101705:	c7 44 24 0c 0f c2 10 	movl   $0x10c20f,0xc(%esp)
  10170c:	00 
  10170d:	c7 44 24 08 25 c2 10 	movl   $0x10c225,0x8(%esp)
  101714:	00 
  101715:	c7 44 24 04 5c 00 00 	movl   $0x5c,0x4(%esp)
  10171c:	00 
  10171d:	c7 04 24 3a c2 10 00 	movl   $0x10c23a,(%esp)
  101724:	e8 0f f2 ff ff       	call   100938 <debug_panic>
	return c;
  101729:	8b 45 f4             	mov    0xfffffff4(%ebp),%eax
}
  10172c:	c9                   	leave  
  10172d:	c3                   	ret    

0010172e <cpu_alloc>:

// Allocate an additional cpu struct representing a non-bootstrap processor.
cpu *
cpu_alloc(void)
{
  10172e:	55                   	push   %ebp
  10172f:	89 e5                	mov    %esp,%ebp
  101731:	83 ec 28             	sub    $0x28,%esp
	// Pointer to the cpu.next pointer of the last CPU on the list,
	// for chaining on new CPUs in cpu_alloc().  Note: static.
	static cpu **cpu_tail = &cpu_boot.next;

	pageinfo *pi = mem_alloc();
  101734:	e8 e2 f8 ff ff       	call   10101b <mem_alloc>
  101739:	89 45 f8             	mov    %eax,0xfffffff8(%ebp)
	assert(pi != 0);	// shouldn't be out of memory just yet!
  10173c:	83 7d f8 00          	cmpl   $0x0,0xfffffff8(%ebp)
  101740:	75 24                	jne    101766 <cpu_alloc+0x38>
  101742:	c7 44 24 0c 47 c2 10 	movl   $0x10c247,0xc(%esp)
  101749:	00 
  10174a:	c7 44 24 08 25 c2 10 	movl   $0x10c225,0x8(%esp)
  101751:	00 
  101752:	c7 44 24 04 5e 00 00 	movl   $0x5e,0x4(%esp)
  101759:	00 
  10175a:	c7 04 24 4f c2 10 00 	movl   $0x10c24f,(%esp)
  101761:	e8 d2 f1 ff ff       	call   100938 <debug_panic>

	cpu *c = (cpu*) mem_pi2ptr(pi);
  101766:	8b 55 f8             	mov    0xfffffff8(%ebp),%edx
  101769:	a1 dc ed 17 00       	mov    0x17eddc,%eax
  10176e:	89 d1                	mov    %edx,%ecx
  101770:	29 c1                	sub    %eax,%ecx
  101772:	89 c8                	mov    %ecx,%eax
  101774:	c1 e0 09             	shl    $0x9,%eax
  101777:	89 45 fc             	mov    %eax,0xfffffffc(%ebp)

	// Clear the whole page for good measure: cpu struct and kernel stack
	memset(c, 0, PAGESIZE);
  10177a:	c7 44 24 08 00 10 00 	movl   $0x1000,0x8(%esp)
  101781:	00 
  101782:	c7 44 24 04 00 00 00 	movl   $0x0,0x4(%esp)
  101789:	00 
  10178a:	8b 45 fc             	mov    0xfffffffc(%ebp),%eax
  10178d:	89 04 24             	mov    %eax,(%esp)
  101790:	e8 74 a0 00 00       	call   10b809 <memset>

	// Now we need to initialize the new cpu struct
	// just to the same degree that cpu_boot was statically initialized.
	// The rest will be filled in by the CPU itself
	// when it starts up and calls cpu_init().

	// Initialize the new cpu's GDT by copying from the cpu_boot.
	// The TSS descriptor will be filled in later by cpu_init().
	assert(sizeof(c->gdt) == sizeof(segdesc) * CPU_GDT_NDESC);
	memmove(c->gdt, cpu_boot.gdt, sizeof(c->gdt));
  101795:	8b 45 fc             	mov    0xfffffffc(%ebp),%eax
  101798:	c7 44 24 08 38 00 00 	movl   $0x38,0x8(%esp)
  10179f:	00 
  1017a0:	c7 44 24 04 00 e0 10 	movl   $0x10e000,0x4(%esp)
  1017a7:	00 
  1017a8:	89 04 24             	mov    %eax,(%esp)
  1017ab:	e8 d2 a0 00 00       	call   10b882 <memmove>

	// Magic verification tag for stack overflow/cpu corruption checking
	c->magic = CPU_MAGIC;
  1017b0:	8b 45 fc             	mov    0xfffffffc(%ebp),%eax
  1017b3:	c7 80 b8 00 00 00 32 	movl   $0x98765432,0xb8(%eax)
  1017ba:	54 76 98 

	// Chain the new CPU onto the tail of the list.
	*cpu_tail = c;
  1017bd:	8b 15 00 f0 10 00    	mov    0x10f000,%edx
  1017c3:	8b 45 fc             	mov    0xfffffffc(%ebp),%eax
  1017c6:	89 02                	mov    %eax,(%edx)
	cpu_tail = &c->next;
  1017c8:	8b 45 fc             	mov    0xfffffffc(%ebp),%eax
  1017cb:	05 a8 00 00 00       	add    $0xa8,%eax
  1017d0:	a3 00 f0 10 00       	mov    %eax,0x10f000

	return c;
  1017d5:	8b 45 fc             	mov    0xfffffffc(%ebp),%eax
}
  1017d8:	c9                   	leave  
  1017d9:	c3                   	ret    

001017da <cpu_bootothers>:

void
cpu_bootothers(void)
{
  1017da:	55                   	push   %ebp
  1017db:	89 e5                	mov    %esp,%ebp
  1017dd:	83 ec 28             	sub    $0x28,%esp
	extern uint8_t _binary_obj_boot_bootother_start[],
			_binary_obj_boot_bootother_size[];

	if (!cpu_onboot()) {
  1017e0:	e8 b6 00 00 00       	call   10189b <cpu_onboot>
  1017e5:	85 c0                	test   %eax,%eax
  1017e7:	75 1f                	jne    101808 <cpu_bootothers+0x2e>
		// Just inform the boot cpu we've booted.
		xchg(&cpu_cur()->booted, 1);
  1017e9:	e8 ed fe ff ff       	call   1016db <cpu_cur>
  1017ee:	05 b0 00 00 00       	add    $0xb0,%eax
  1017f3:	c7 44 24 04 01 00 00 	movl   $0x1,0x4(%esp)
  1017fa:	00 
  1017fb:	89 04 24             	mov    %eax,(%esp)
  1017fe:	e8 b0 00 00 00       	call   1018b3 <xchg>
		return;
  101803:	e9 91 00 00 00       	jmp    101899 <cpu_bootothers+0xbf>
	}

	// Write bootstrap code to unused memory at 0x1000.
	uint8_t *code = (uint8_t*)0x1000;
  101808:	c7 45 f8 00 10 00 00 	movl   $0x1000,0xfffffff8(%ebp)
	memmove(code, _binary_obj_boot_bootother_start,
  10180f:	b8 6a 00 00 00       	mov    $0x6a,%eax
  101814:	89 44 24 08          	mov    %eax,0x8(%esp)
  101818:	c7 44 24 04 d5 8d 17 	movl   $0x178dd5,0x4(%esp)
  10181f:	00 
  101820:	8b 45 f8             	mov    0xfffffff8(%ebp),%eax
  101823:	89 04 24             	mov    %eax,(%esp)
  101826:	e8 57 a0 00 00       	call   10b882 <memmove>
		(uint32_t)_binary_obj_boot_bootother_size);

	cpu *c;
	for(c = &cpu_boot; c; c = c->next){
  10182b:	c7 45 fc 00 e0 10 00 	movl   $0x10e000,0xfffffffc(%ebp)
  101832:	eb 5f                	jmp    101893 <cpu_bootothers+0xb9>
		if(c == cpu_cur())  // We''ve started already.
  101834:	e8 a2 fe ff ff       	call   1016db <cpu_cur>
  101839:	3b 45 fc             	cmp    0xfffffffc(%ebp),%eax
  10183c:	74 49                	je     101887 <cpu_bootothers+0xad>
			continue;

		// Fill in %esp, %eip and start code on cpu.
		*(void**)(code-4) = c->kstackhi;
  10183e:	8b 45 f8             	mov    0xfffffff8(%ebp),%eax
  101841:	83 e8 04             	sub    $0x4,%eax
  101844:	89 c2                	mov    %eax,%edx
  101846:	8b 45 fc             	mov    0xfffffffc(%ebp),%eax
  101849:	05 00 10 00 00       	add    $0x1000,%eax
  10184e:	89 02                	mov    %eax,(%edx)
		*(void**)(code-8) = init;
  101850:	8b 45 f8             	mov    0xfffffff8(%ebp),%eax
  101853:	83 e8 08             	sub    $0x8,%eax
  101856:	c7 00 28 00 10 00    	movl   $0x100028,(%eax)
		lapic_startcpu(c->id, (uint32_t)code);
  10185c:	8b 45 f8             	mov    0xfffffff8(%ebp),%eax
  10185f:	89 c2                	mov    %eax,%edx
  101861:	8b 45 fc             	mov    0xfffffffc(%ebp),%eax
  101864:	0f b6 80 ac 00 00 00 	movzbl 0xac(%eax),%eax
  10186b:	0f b6 c0             	movzbl %al,%eax
  10186e:	89 54 24 04          	mov    %edx,0x4(%esp)
  101872:	89 04 24             	mov    %eax,(%esp)
  101875:	e8 ac 91 00 00       	call   10aa26 <lapic_startcpu>

		// Wait for cpu to get through bootstrap.
		while(c->booted == 0)
  10187a:	8b 45 fc             	mov    0xfffffffc(%ebp),%eax
  10187d:	8b 80 b0 00 00 00    	mov    0xb0(%eax),%eax
  101883:	85 c0                	test   %eax,%eax
  101885:	74 f3                	je     10187a <cpu_bootothers+0xa0>
  101887:	8b 45 fc             	mov    0xfffffffc(%ebp),%eax
  10188a:	8b 80 a8 00 00 00    	mov    0xa8(%eax),%eax
  101890:	89 45 fc             	mov    %eax,0xfffffffc(%ebp)
  101893:	83 7d fc 00          	cmpl   $0x0,0xfffffffc(%ebp)
  101897:	75 9b                	jne    101834 <cpu_bootothers+0x5a>
			;
	}
}
  101899:	c9                   	leave  
  10189a:	c3                   	ret    

0010189b <cpu_onboot>:
}

// Returns true if we're running on the bootstrap CPU.
static inline int
cpu_onboot() {
  10189b:	55                   	push   %ebp
  10189c:	89 e5                	mov    %esp,%ebp
  10189e:	83 ec 08             	sub    $0x8,%esp
	return cpu_cur() == &cpu_boot;
  1018a1:	e8 35 fe ff ff       	call   1016db <cpu_cur>
  1018a6:	3d 00 e0 10 00       	cmp    $0x10e000,%eax
  1018ab:	0f 94 c0             	sete   %al
  1018ae:	0f b6 c0             	movzbl %al,%eax
}
  1018b1:	c9                   	leave  
  1018b2:	c3                   	ret    

001018b3 <xchg>:

// Atomically set *addr to newval and return the old value of *addr.
static inline uint32_t
xchg(volatile uint32_t *addr, uint32_t newval)
{
  1018b3:	55                   	push   %ebp
  1018b4:	89 e5                	mov    %esp,%ebp
  1018b6:	53                   	push   %ebx
  1018b7:	83 ec 14             	sub    $0x14,%esp
	uint32_t result;

	// The + in "+m" denotes a read-modify-write operand.
	asm volatile("lock; xchgl %0, %1" :
  1018ba:	8b 4d 08             	mov    0x8(%ebp),%ecx
  1018bd:	8b 55 0c             	mov    0xc(%ebp),%edx
  1018c0:	8b 45 08             	mov    0x8(%ebp),%eax
  1018c3:	89 45 e8             	mov    %eax,0xffffffe8(%ebp)
  1018c6:	89 d0                	mov    %edx,%eax
  1018c8:	8b 5d e8             	mov    0xffffffe8(%ebp),%ebx
  1018cb:	f0 87 01             	lock xchg %eax,(%ecx)
  1018ce:	89 45 e8             	mov    %eax,0xffffffe8(%ebp)
  1018d1:	8b 45 e8             	mov    0xffffffe8(%ebp),%eax
  1018d4:	89 45 f8             	mov    %eax,0xfffffff8(%ebp)
	       "+m" (*addr), "=a" (result) :
	       "1" (newval) :
	       "cc");
	return result;
  1018d7:	8b 45 f8             	mov    0xfffffff8(%ebp),%eax
}
  1018da:	83 c4 14             	add    $0x14,%esp
  1018dd:	5b                   	pop    %ebx
  1018de:	5d                   	pop    %ebp
  1018df:	c3                   	ret    

001018e0 <trap_init_idt>:
  1018e0:	55                   	push   %ebp
  1018e1:	89 e5                	mov    %esp,%ebp
  1018e3:	83 ec 10             	sub    $0x10,%esp
  1018e6:	c7 45 fc 00 00 00 00 	movl   $0x0,0xfffffffc(%ebp)
  1018ed:	e9 b5 00 00 00       	jmp    1019a7 <trap_init_idt+0xc7>
  1018f2:	8b 55 fc             	mov    0xfffffffc(%ebp),%edx
  1018f5:	b8 04 36 10 00       	mov    $0x103604,%eax
  1018fa:	66 89 04 d5 20 a2 17 	mov    %ax,0x17a220(,%edx,8)
  101901:	00 
  101902:	8b 45 fc             	mov    0xfffffffc(%ebp),%eax
  101905:	66 c7 04 c5 22 a2 17 	movw   $0x8,0x17a222(,%eax,8)
  10190c:	00 08 00 
  10190f:	8b 55 fc             	mov    0xfffffffc(%ebp),%edx
  101912:	0f b6 04 d5 24 a2 17 	movzbl 0x17a224(,%edx,8),%eax
  101919:	00 
  10191a:	83 e0 e0             	and    $0xffffffe0,%eax
  10191d:	88 04 d5 24 a2 17 00 	mov    %al,0x17a224(,%edx,8)
  101924:	8b 55 fc             	mov    0xfffffffc(%ebp),%edx
  101927:	0f b6 04 d5 24 a2 17 	movzbl 0x17a224(,%edx,8),%eax
  10192e:	00 
  10192f:	83 e0 1f             	and    $0x1f,%eax
  101932:	88 04 d5 24 a2 17 00 	mov    %al,0x17a224(,%edx,8)
  101939:	8b 55 fc             	mov    0xfffffffc(%ebp),%edx
  10193c:	0f b6 04 d5 25 a2 17 	movzbl 0x17a225(,%edx,8),%eax
  101943:	00 
  101944:	83 e0 f0             	and    $0xfffffff0,%eax
  101947:	83 c8 0e             	or     $0xe,%eax
  10194a:	88 04 d5 25 a2 17 00 	mov    %al,0x17a225(,%edx,8)
  101951:	8b 55 fc             	mov    0xfffffffc(%ebp),%edx
  101954:	0f b6 04 d5 25 a2 17 	movzbl 0x17a225(,%edx,8),%eax
  10195b:	00 
  10195c:	83 e0 ef             	and    $0xffffffef,%eax
  10195f:	88 04 d5 25 a2 17 00 	mov    %al,0x17a225(,%edx,8)
  101966:	8b 55 fc             	mov    0xfffffffc(%ebp),%edx
  101969:	0f b6 04 d5 25 a2 17 	movzbl 0x17a225(,%edx,8),%eax
  101970:	00 
  101971:	83 e0 9f             	and    $0xffffff9f,%eax
  101974:	88 04 d5 25 a2 17 00 	mov    %al,0x17a225(,%edx,8)
  10197b:	8b 55 fc             	mov    0xfffffffc(%ebp),%edx
  10197e:	0f b6 04 d5 25 a2 17 	movzbl 0x17a225(,%edx,8),%eax
  101985:	00 
  101986:	83 c8 80             	or     $0xffffff80,%eax
  101989:	88 04 d5 25 a2 17 00 	mov    %al,0x17a225(,%edx,8)
  101990:	8b 55 fc             	mov    0xfffffffc(%ebp),%edx
  101993:	b8 04 36 10 00       	mov    $0x103604,%eax
  101998:	c1 e8 10             	shr    $0x10,%eax
  10199b:	66 89 04 d5 26 a2 17 	mov    %ax,0x17a226(,%edx,8)
  1019a2:	00 
  1019a3:	83 45 fc 01          	addl   $0x1,0xfffffffc(%ebp)
  1019a7:	8b 45 fc             	mov    0xfffffffc(%ebp),%eax
  1019aa:	3d ff 00 00 00       	cmp    $0xff,%eax
  1019af:	0f 86 3d ff ff ff    	jbe    1018f2 <trap_init_idt+0x12>
  1019b5:	b8 a0 34 10 00       	mov    $0x1034a0,%eax
  1019ba:	66 a3 20 a2 17 00    	mov    %ax,0x17a220
  1019c0:	66 c7 05 22 a2 17 00 	movw   $0x8,0x17a222
  1019c7:	08 00 
  1019c9:	0f b6 05 24 a2 17 00 	movzbl 0x17a224,%eax
  1019d0:	83 e0 e0             	and    $0xffffffe0,%eax
  1019d3:	a2 24 a2 17 00       	mov    %al,0x17a224
  1019d8:	0f b6 05 24 a2 17 00 	movzbl 0x17a224,%eax
  1019df:	83 e0 1f             	and    $0x1f,%eax
  1019e2:	a2 24 a2 17 00       	mov    %al,0x17a224
  1019e7:	0f b6 05 25 a2 17 00 	movzbl 0x17a225,%eax
  1019ee:	83 e0 f0             	and    $0xfffffff0,%eax
  1019f1:	83 c8 0e             	or     $0xe,%eax
  1019f4:	a2 25 a2 17 00       	mov    %al,0x17a225
  1019f9:	0f b6 05 25 a2 17 00 	movzbl 0x17a225,%eax
  101a00:	83 e0 ef             	and    $0xffffffef,%eax
  101a03:	a2 25 a2 17 00       	mov    %al,0x17a225
  101a08:	0f b6 05 25 a2 17 00 	movzbl 0x17a225,%eax
  101a0f:	83 e0 9f             	and    $0xffffff9f,%eax
  101a12:	a2 25 a2 17 00       	mov    %al,0x17a225
  101a17:	0f b6 05 25 a2 17 00 	movzbl 0x17a225,%eax
  101a1e:	83 c8 80             	or     $0xffffff80,%eax
  101a21:	a2 25 a2 17 00       	mov    %al,0x17a225
  101a26:	b8 a0 34 10 00       	mov    $0x1034a0,%eax
  101a2b:	c1 e8 10             	shr    $0x10,%eax
  101a2e:	66 a3 26 a2 17 00    	mov    %ax,0x17a226
  101a34:	b8 aa 34 10 00       	mov    $0x1034aa,%eax
  101a39:	66 a3 28 a2 17 00    	mov    %ax,0x17a228
  101a3f:	66 c7 05 2a a2 17 00 	movw   $0x8,0x17a22a
  101a46:	08 00 
  101a48:	0f b6 05 2c a2 17 00 	movzbl 0x17a22c,%eax
  101a4f:	83 e0 e0             	and    $0xffffffe0,%eax
  101a52:	a2 2c a2 17 00       	mov    %al,0x17a22c
  101a57:	0f b6 05 2c a2 17 00 	movzbl 0x17a22c,%eax
  101a5e:	83 e0 1f             	and    $0x1f,%eax
  101a61:	a2 2c a2 17 00       	mov    %al,0x17a22c
  101a66:	0f b6 05 2d a2 17 00 	movzbl 0x17a22d,%eax
  101a6d:	83 e0 f0             	and    $0xfffffff0,%eax
  101a70:	83 c8 0e             	or     $0xe,%eax
  101a73:	a2 2d a2 17 00       	mov    %al,0x17a22d
  101a78:	0f b6 05 2d a2 17 00 	movzbl 0x17a22d,%eax
  101a7f:	83 e0 ef             	and    $0xffffffef,%eax
  101a82:	a2 2d a2 17 00       	mov    %al,0x17a22d
  101a87:	0f b6 05 2d a2 17 00 	movzbl 0x17a22d,%eax
  101a8e:	83 e0 9f             	and    $0xffffff9f,%eax
  101a91:	a2 2d a2 17 00       	mov    %al,0x17a22d
  101a96:	0f b6 05 2d a2 17 00 	movzbl 0x17a22d,%eax
  101a9d:	83 c8 80             	or     $0xffffff80,%eax
  101aa0:	a2 2d a2 17 00       	mov    %al,0x17a22d
  101aa5:	b8 aa 34 10 00       	mov    $0x1034aa,%eax
  101aaa:	c1 e8 10             	shr    $0x10,%eax
  101aad:	66 a3 2e a2 17 00    	mov    %ax,0x17a22e
  101ab3:	b8 b4 34 10 00       	mov    $0x1034b4,%eax
  101ab8:	66 a3 30 a2 17 00    	mov    %ax,0x17a230
  101abe:	66 c7 05 32 a2 17 00 	movw   $0x8,0x17a232
  101ac5:	08 00 
  101ac7:	0f b6 05 34 a2 17 00 	movzbl 0x17a234,%eax
  101ace:	83 e0 e0             	and    $0xffffffe0,%eax
  101ad1:	a2 34 a2 17 00       	mov    %al,0x17a234
  101ad6:	0f b6 05 34 a2 17 00 	movzbl 0x17a234,%eax
  101add:	83 e0 1f             	and    $0x1f,%eax
  101ae0:	a2 34 a2 17 00       	mov    %al,0x17a234
  101ae5:	0f b6 05 35 a2 17 00 	movzbl 0x17a235,%eax
  101aec:	83 e0 f0             	and    $0xfffffff0,%eax
  101aef:	83 c8 0e             	or     $0xe,%eax
  101af2:	a2 35 a2 17 00       	mov    %al,0x17a235
  101af7:	0f b6 05 35 a2 17 00 	movzbl 0x17a235,%eax
  101afe:	83 e0 ef             	and    $0xffffffef,%eax
  101b01:	a2 35 a2 17 00       	mov    %al,0x17a235
  101b06:	0f b6 05 35 a2 17 00 	movzbl 0x17a235,%eax
  101b0d:	83 e0 9f             	and    $0xffffff9f,%eax
  101b10:	a2 35 a2 17 00       	mov    %al,0x17a235
  101b15:	0f b6 05 35 a2 17 00 	movzbl 0x17a235,%eax
  101b1c:	83 c8 80             	or     $0xffffff80,%eax
  101b1f:	a2 35 a2 17 00       	mov    %al,0x17a235
  101b24:	b8 b4 34 10 00       	mov    $0x1034b4,%eax
  101b29:	c1 e8 10             	shr    $0x10,%eax
  101b2c:	66 a3 36 a2 17 00    	mov    %ax,0x17a236
  101b32:	b8 be 34 10 00       	mov    $0x1034be,%eax
  101b37:	66 a3 38 a2 17 00    	mov    %ax,0x17a238
  101b3d:	66 c7 05 3a a2 17 00 	movw   $0x8,0x17a23a
  101b44:	08 00 
  101b46:	0f b6 05 3c a2 17 00 	movzbl 0x17a23c,%eax
  101b4d:	83 e0 e0             	and    $0xffffffe0,%eax
  101b50:	a2 3c a2 17 00       	mov    %al,0x17a23c
  101b55:	0f b6 05 3c a2 17 00 	movzbl 0x17a23c,%eax
  101b5c:	83 e0 1f             	and    $0x1f,%eax
  101b5f:	a2 3c a2 17 00       	mov    %al,0x17a23c
  101b64:	0f b6 05 3d a2 17 00 	movzbl 0x17a23d,%eax
  101b6b:	83 e0 f0             	and    $0xfffffff0,%eax
  101b6e:	83 c8 0e             	or     $0xe,%eax
  101b71:	a2 3d a2 17 00       	mov    %al,0x17a23d
  101b76:	0f b6 05 3d a2 17 00 	movzbl 0x17a23d,%eax
  101b7d:	83 e0 ef             	and    $0xffffffef,%eax
  101b80:	a2 3d a2 17 00       	mov    %al,0x17a23d
  101b85:	0f b6 05 3d a2 17 00 	movzbl 0x17a23d,%eax
  101b8c:	83 c8 60             	or     $0x60,%eax
  101b8f:	a2 3d a2 17 00       	mov    %al,0x17a23d
  101b94:	0f b6 05 3d a2 17 00 	movzbl 0x17a23d,%eax
  101b9b:	83 c8 80             	or     $0xffffff80,%eax
  101b9e:	a2 3d a2 17 00       	mov    %al,0x17a23d
  101ba3:	b8 be 34 10 00       	mov    $0x1034be,%eax
  101ba8:	c1 e8 10             	shr    $0x10,%eax
  101bab:	66 a3 3e a2 17 00    	mov    %ax,0x17a23e
  101bb1:	b8 c8 34 10 00       	mov    $0x1034c8,%eax
  101bb6:	66 a3 40 a2 17 00    	mov    %ax,0x17a240
  101bbc:	66 c7 05 42 a2 17 00 	movw   $0x8,0x17a242
  101bc3:	08 00 
  101bc5:	0f b6 05 44 a2 17 00 	movzbl 0x17a244,%eax
  101bcc:	83 e0 e0             	and    $0xffffffe0,%eax
  101bcf:	a2 44 a2 17 00       	mov    %al,0x17a244
  101bd4:	0f b6 05 44 a2 17 00 	movzbl 0x17a244,%eax
  101bdb:	83 e0 1f             	and    $0x1f,%eax
  101bde:	a2 44 a2 17 00       	mov    %al,0x17a244
  101be3:	0f b6 05 45 a2 17 00 	movzbl 0x17a245,%eax
  101bea:	83 e0 f0             	and    $0xfffffff0,%eax
  101bed:	83 c8 0e             	or     $0xe,%eax
  101bf0:	a2 45 a2 17 00       	mov    %al,0x17a245
  101bf5:	0f b6 05 45 a2 17 00 	movzbl 0x17a245,%eax
  101bfc:	83 e0 ef             	and    $0xffffffef,%eax
  101bff:	a2 45 a2 17 00       	mov    %al,0x17a245
  101c04:	0f b6 05 45 a2 17 00 	movzbl 0x17a245,%eax
  101c0b:	83 c8 60             	or     $0x60,%eax
  101c0e:	a2 45 a2 17 00       	mov    %al,0x17a245
  101c13:	0f b6 05 45 a2 17 00 	movzbl 0x17a245,%eax
  101c1a:	83 c8 80             	or     $0xffffff80,%eax
  101c1d:	a2 45 a2 17 00       	mov    %al,0x17a245
  101c22:	b8 c8 34 10 00       	mov    $0x1034c8,%eax
  101c27:	c1 e8 10             	shr    $0x10,%eax
  101c2a:	66 a3 46 a2 17 00    	mov    %ax,0x17a246
  101c30:	b8 d2 34 10 00       	mov    $0x1034d2,%eax
  101c35:	66 a3 48 a2 17 00    	mov    %ax,0x17a248
  101c3b:	66 c7 05 4a a2 17 00 	movw   $0x8,0x17a24a
  101c42:	08 00 
  101c44:	0f b6 05 4c a2 17 00 	movzbl 0x17a24c,%eax
  101c4b:	83 e0 e0             	and    $0xffffffe0,%eax
  101c4e:	a2 4c a2 17 00       	mov    %al,0x17a24c
  101c53:	0f b6 05 4c a2 17 00 	movzbl 0x17a24c,%eax
  101c5a:	83 e0 1f             	and    $0x1f,%eax
  101c5d:	a2 4c a2 17 00       	mov    %al,0x17a24c
  101c62:	0f b6 05 4d a2 17 00 	movzbl 0x17a24d,%eax
  101c69:	83 e0 f0             	and    $0xfffffff0,%eax
  101c6c:	83 c8 0e             	or     $0xe,%eax
  101c6f:	a2 4d a2 17 00       	mov    %al,0x17a24d
  101c74:	0f b6 05 4d a2 17 00 	movzbl 0x17a24d,%eax
  101c7b:	83 e0 ef             	and    $0xffffffef,%eax
  101c7e:	a2 4d a2 17 00       	mov    %al,0x17a24d
  101c83:	0f b6 05 4d a2 17 00 	movzbl 0x17a24d,%eax
  101c8a:	83 e0 9f             	and    $0xffffff9f,%eax
  101c8d:	a2 4d a2 17 00       	mov    %al,0x17a24d
  101c92:	0f b6 05 4d a2 17 00 	movzbl 0x17a24d,%eax
  101c99:	83 c8 80             	or     $0xffffff80,%eax
  101c9c:	a2 4d a2 17 00       	mov    %al,0x17a24d
  101ca1:	b8 d2 34 10 00       	mov    $0x1034d2,%eax
  101ca6:	c1 e8 10             	shr    $0x10,%eax
  101ca9:	66 a3 4e a2 17 00    	mov    %ax,0x17a24e
  101caf:	b8 dc 34 10 00       	mov    $0x1034dc,%eax
  101cb4:	66 a3 50 a2 17 00    	mov    %ax,0x17a250
  101cba:	66 c7 05 52 a2 17 00 	movw   $0x8,0x17a252
  101cc1:	08 00 
  101cc3:	0f b6 05 54 a2 17 00 	movzbl 0x17a254,%eax
  101cca:	83 e0 e0             	and    $0xffffffe0,%eax
  101ccd:	a2 54 a2 17 00       	mov    %al,0x17a254
  101cd2:	0f b6 05 54 a2 17 00 	movzbl 0x17a254,%eax
  101cd9:	83 e0 1f             	and    $0x1f,%eax
  101cdc:	a2 54 a2 17 00       	mov    %al,0x17a254
  101ce1:	0f b6 05 55 a2 17 00 	movzbl 0x17a255,%eax
  101ce8:	83 e0 f0             	and    $0xfffffff0,%eax
  101ceb:	83 c8 0e             	or     $0xe,%eax
  101cee:	a2 55 a2 17 00       	mov    %al,0x17a255
  101cf3:	0f b6 05 55 a2 17 00 	movzbl 0x17a255,%eax
  101cfa:	83 e0 ef             	and    $0xffffffef,%eax
  101cfd:	a2 55 a2 17 00       	mov    %al,0x17a255
  101d02:	0f b6 05 55 a2 17 00 	movzbl 0x17a255,%eax
  101d09:	83 e0 9f             	and    $0xffffff9f,%eax
  101d0c:	a2 55 a2 17 00       	mov    %al,0x17a255
  101d11:	0f b6 05 55 a2 17 00 	movzbl 0x17a255,%eax
  101d18:	83 c8 80             	or     $0xffffff80,%eax
  101d1b:	a2 55 a2 17 00       	mov    %al,0x17a255
  101d20:	b8 dc 34 10 00       	mov    $0x1034dc,%eax
  101d25:	c1 e8 10             	shr    $0x10,%eax
  101d28:	66 a3 56 a2 17 00    	mov    %ax,0x17a256
  101d2e:	b8 e6 34 10 00       	mov    $0x1034e6,%eax
  101d33:	66 a3 58 a2 17 00    	mov    %ax,0x17a258
  101d39:	66 c7 05 5a a2 17 00 	movw   $0x8,0x17a25a
  101d40:	08 00 
  101d42:	0f b6 05 5c a2 17 00 	movzbl 0x17a25c,%eax
  101d49:	83 e0 e0             	and    $0xffffffe0,%eax
  101d4c:	a2 5c a2 17 00       	mov    %al,0x17a25c
  101d51:	0f b6 05 5c a2 17 00 	movzbl 0x17a25c,%eax
  101d58:	83 e0 1f             	and    $0x1f,%eax
  101d5b:	a2 5c a2 17 00       	mov    %al,0x17a25c
  101d60:	0f b6 05 5d a2 17 00 	movzbl 0x17a25d,%eax
  101d67:	83 e0 f0             	and    $0xfffffff0,%eax
  101d6a:	83 c8 0e             	or     $0xe,%eax
  101d6d:	a2 5d a2 17 00       	mov    %al,0x17a25d
  101d72:	0f b6 05 5d a2 17 00 	movzbl 0x17a25d,%eax
  101d79:	83 e0 ef             	and    $0xffffffef,%eax
  101d7c:	a2 5d a2 17 00       	mov    %al,0x17a25d
  101d81:	0f b6 05 5d a2 17 00 	movzbl 0x17a25d,%eax
  101d88:	83 e0 9f             	and    $0xffffff9f,%eax
  101d8b:	a2 5d a2 17 00       	mov    %al,0x17a25d
  101d90:	0f b6 05 5d a2 17 00 	movzbl 0x17a25d,%eax
  101d97:	83 c8 80             	or     $0xffffff80,%eax
  101d9a:	a2 5d a2 17 00       	mov    %al,0x17a25d
  101d9f:	b8 e6 34 10 00       	mov    $0x1034e6,%eax
  101da4:	c1 e8 10             	shr    $0x10,%eax
  101da7:	66 a3 5e a2 17 00    	mov    %ax,0x17a25e
  101dad:	b8 f0 34 10 00       	mov    $0x1034f0,%eax
  101db2:	66 a3 60 a2 17 00    	mov    %ax,0x17a260
  101db8:	66 c7 05 62 a2 17 00 	movw   $0x8,0x17a262
  101dbf:	08 00 
  101dc1:	0f b6 05 64 a2 17 00 	movzbl 0x17a264,%eax
  101dc8:	83 e0 e0             	and    $0xffffffe0,%eax
  101dcb:	a2 64 a2 17 00       	mov    %al,0x17a264
  101dd0:	0f b6 05 64 a2 17 00 	movzbl 0x17a264,%eax
  101dd7:	83 e0 1f             	and    $0x1f,%eax
  101dda:	a2 64 a2 17 00       	mov    %al,0x17a264
  101ddf:	0f b6 05 65 a2 17 00 	movzbl 0x17a265,%eax
  101de6:	83 e0 f0             	and    $0xfffffff0,%eax
  101de9:	83 c8 0e             	or     $0xe,%eax
  101dec:	a2 65 a2 17 00       	mov    %al,0x17a265
  101df1:	0f b6 05 65 a2 17 00 	movzbl 0x17a265,%eax
  101df8:	83 e0 ef             	and    $0xffffffef,%eax
  101dfb:	a2 65 a2 17 00       	mov    %al,0x17a265
  101e00:	0f b6 05 65 a2 17 00 	movzbl 0x17a265,%eax
  101e07:	83 e0 9f             	and    $0xffffff9f,%eax
  101e0a:	a2 65 a2 17 00       	mov    %al,0x17a265
  101e0f:	0f b6 05 65 a2 17 00 	movzbl 0x17a265,%eax
  101e16:	83 c8 80             	or     $0xffffff80,%eax
  101e19:	a2 65 a2 17 00       	mov    %al,0x17a265
  101e1e:	b8 f0 34 10 00       	mov    $0x1034f0,%eax
  101e23:	c1 e8 10             	shr    $0x10,%eax
  101e26:	66 a3 66 a2 17 00    	mov    %ax,0x17a266
  101e2c:	b8 f8 34 10 00       	mov    $0x1034f8,%eax
  101e31:	66 a3 70 a2 17 00    	mov    %ax,0x17a270
  101e37:	66 c7 05 72 a2 17 00 	movw   $0x8,0x17a272
  101e3e:	08 00 
  101e40:	0f b6 05 74 a2 17 00 	movzbl 0x17a274,%eax
  101e47:	83 e0 e0             	and    $0xffffffe0,%eax
  101e4a:	a2 74 a2 17 00       	mov    %al,0x17a274
  101e4f:	0f b6 05 74 a2 17 00 	movzbl 0x17a274,%eax
  101e56:	83 e0 1f             	and    $0x1f,%eax
  101e59:	a2 74 a2 17 00       	mov    %al,0x17a274
  101e5e:	0f b6 05 75 a2 17 00 	movzbl 0x17a275,%eax
  101e65:	83 e0 f0             	and    $0xfffffff0,%eax
  101e68:	83 c8 0e             	or     $0xe,%eax
  101e6b:	a2 75 a2 17 00       	mov    %al,0x17a275
  101e70:	0f b6 05 75 a2 17 00 	movzbl 0x17a275,%eax
  101e77:	83 e0 ef             	and    $0xffffffef,%eax
  101e7a:	a2 75 a2 17 00       	mov    %al,0x17a275
  101e7f:	0f b6 05 75 a2 17 00 	movzbl 0x17a275,%eax
  101e86:	83 e0 9f             	and    $0xffffff9f,%eax
  101e89:	a2 75 a2 17 00       	mov    %al,0x17a275
  101e8e:	0f b6 05 75 a2 17 00 	movzbl 0x17a275,%eax
  101e95:	83 c8 80             	or     $0xffffff80,%eax
  101e98:	a2 75 a2 17 00       	mov    %al,0x17a275
  101e9d:	b8 f8 34 10 00       	mov    $0x1034f8,%eax
  101ea2:	c1 e8 10             	shr    $0x10,%eax
  101ea5:	66 a3 76 a2 17 00    	mov    %ax,0x17a276
  101eab:	b8 00 35 10 00       	mov    $0x103500,%eax
  101eb0:	66 a3 78 a2 17 00    	mov    %ax,0x17a278
  101eb6:	66 c7 05 7a a2 17 00 	movw   $0x8,0x17a27a
  101ebd:	08 00 
  101ebf:	0f b6 05 7c a2 17 00 	movzbl 0x17a27c,%eax
  101ec6:	83 e0 e0             	and    $0xffffffe0,%eax
  101ec9:	a2 7c a2 17 00       	mov    %al,0x17a27c
  101ece:	0f b6 05 7c a2 17 00 	movzbl 0x17a27c,%eax
  101ed5:	83 e0 1f             	and    $0x1f,%eax
  101ed8:	a2 7c a2 17 00       	mov    %al,0x17a27c
  101edd:	0f b6 05 7d a2 17 00 	movzbl 0x17a27d,%eax
  101ee4:	83 e0 f0             	and    $0xfffffff0,%eax
  101ee7:	83 c8 0e             	or     $0xe,%eax
  101eea:	a2 7d a2 17 00       	mov    %al,0x17a27d
  101eef:	0f b6 05 7d a2 17 00 	movzbl 0x17a27d,%eax
  101ef6:	83 e0 ef             	and    $0xffffffef,%eax
  101ef9:	a2 7d a2 17 00       	mov    %al,0x17a27d
  101efe:	0f b6 05 7d a2 17 00 	movzbl 0x17a27d,%eax
  101f05:	83 e0 9f             	and    $0xffffff9f,%eax
  101f08:	a2 7d a2 17 00       	mov    %al,0x17a27d
  101f0d:	0f b6 05 7d a2 17 00 	movzbl 0x17a27d,%eax
  101f14:	83 c8 80             	or     $0xffffff80,%eax
  101f17:	a2 7d a2 17 00       	mov    %al,0x17a27d
  101f1c:	b8 00 35 10 00       	mov    $0x103500,%eax
  101f21:	c1 e8 10             	shr    $0x10,%eax
  101f24:	66 a3 7e a2 17 00    	mov    %ax,0x17a27e
  101f2a:	b8 08 35 10 00       	mov    $0x103508,%eax
  101f2f:	66 a3 80 a2 17 00    	mov    %ax,0x17a280
  101f35:	66 c7 05 82 a2 17 00 	movw   $0x8,0x17a282
  101f3c:	08 00 
  101f3e:	0f b6 05 84 a2 17 00 	movzbl 0x17a284,%eax
  101f45:	83 e0 e0             	and    $0xffffffe0,%eax
  101f48:	a2 84 a2 17 00       	mov    %al,0x17a284
  101f4d:	0f b6 05 84 a2 17 00 	movzbl 0x17a284,%eax
  101f54:	83 e0 1f             	and    $0x1f,%eax
  101f57:	a2 84 a2 17 00       	mov    %al,0x17a284
  101f5c:	0f b6 05 85 a2 17 00 	movzbl 0x17a285,%eax
  101f63:	83 e0 f0             	and    $0xfffffff0,%eax
  101f66:	83 c8 0e             	or     $0xe,%eax
  101f69:	a2 85 a2 17 00       	mov    %al,0x17a285
  101f6e:	0f b6 05 85 a2 17 00 	movzbl 0x17a285,%eax
  101f75:	83 e0 ef             	and    $0xffffffef,%eax
  101f78:	a2 85 a2 17 00       	mov    %al,0x17a285
  101f7d:	0f b6 05 85 a2 17 00 	movzbl 0x17a285,%eax
  101f84:	83 e0 9f             	and    $0xffffff9f,%eax
  101f87:	a2 85 a2 17 00       	mov    %al,0x17a285
  101f8c:	0f b6 05 85 a2 17 00 	movzbl 0x17a285,%eax
  101f93:	83 c8 80             	or     $0xffffff80,%eax
  101f96:	a2 85 a2 17 00       	mov    %al,0x17a285
  101f9b:	b8 08 35 10 00       	mov    $0x103508,%eax
  101fa0:	c1 e8 10             	shr    $0x10,%eax
  101fa3:	66 a3 86 a2 17 00    	mov    %ax,0x17a286
  101fa9:	b8 10 35 10 00       	mov    $0x103510,%eax
  101fae:	66 a3 88 a2 17 00    	mov    %ax,0x17a288
  101fb4:	66 c7 05 8a a2 17 00 	movw   $0x8,0x17a28a
  101fbb:	08 00 
  101fbd:	0f b6 05 8c a2 17 00 	movzbl 0x17a28c,%eax
  101fc4:	83 e0 e0             	and    $0xffffffe0,%eax
  101fc7:	a2 8c a2 17 00       	mov    %al,0x17a28c
  101fcc:	0f b6 05 8c a2 17 00 	movzbl 0x17a28c,%eax
  101fd3:	83 e0 1f             	and    $0x1f,%eax
  101fd6:	a2 8c a2 17 00       	mov    %al,0x17a28c
  101fdb:	0f b6 05 8d a2 17 00 	movzbl 0x17a28d,%eax
  101fe2:	83 e0 f0             	and    $0xfffffff0,%eax
  101fe5:	83 c8 0e             	or     $0xe,%eax
  101fe8:	a2 8d a2 17 00       	mov    %al,0x17a28d
  101fed:	0f b6 05 8d a2 17 00 	movzbl 0x17a28d,%eax
  101ff4:	83 e0 ef             	and    $0xffffffef,%eax
  101ff7:	a2 8d a2 17 00       	mov    %al,0x17a28d
  101ffc:	0f b6 05 8d a2 17 00 	movzbl 0x17a28d,%eax
  102003:	83 e0 9f             	and    $0xffffff9f,%eax
  102006:	a2 8d a2 17 00       	mov    %al,0x17a28d
  10200b:	0f b6 05 8d a2 17 00 	movzbl 0x17a28d,%eax
  102012:	83 c8 80             	or     $0xffffff80,%eax
  102015:	a2 8d a2 17 00       	mov    %al,0x17a28d
  10201a:	b8 10 35 10 00       	mov    $0x103510,%eax
  10201f:	c1 e8 10             	shr    $0x10,%eax
  102022:	66 a3 8e a2 17 00    	mov    %ax,0x17a28e
  102028:	b8 18 35 10 00       	mov    $0x103518,%eax
  10202d:	66 a3 90 a2 17 00    	mov    %ax,0x17a290
  102033:	66 c7 05 92 a2 17 00 	movw   $0x8,0x17a292
  10203a:	08 00 
  10203c:	0f b6 05 94 a2 17 00 	movzbl 0x17a294,%eax
  102043:	83 e0 e0             	and    $0xffffffe0,%eax
  102046:	a2 94 a2 17 00       	mov    %al,0x17a294
  10204b:	0f b6 05 94 a2 17 00 	movzbl 0x17a294,%eax
  102052:	83 e0 1f             	and    $0x1f,%eax
  102055:	a2 94 a2 17 00       	mov    %al,0x17a294
  10205a:	0f b6 05 95 a2 17 00 	movzbl 0x17a295,%eax
  102061:	83 e0 f0             	and    $0xfffffff0,%eax
  102064:	83 c8 0e             	or     $0xe,%eax
  102067:	a2 95 a2 17 00       	mov    %al,0x17a295
  10206c:	0f b6 05 95 a2 17 00 	movzbl 0x17a295,%eax
  102073:	83 e0 ef             	and    $0xffffffef,%eax
  102076:	a2 95 a2 17 00       	mov    %al,0x17a295
  10207b:	0f b6 05 95 a2 17 00 	movzbl 0x17a295,%eax
  102082:	83 e0 9f             	and    $0xffffff9f,%eax
  102085:	a2 95 a2 17 00       	mov    %al,0x17a295
  10208a:	0f b6 05 95 a2 17 00 	movzbl 0x17a295,%eax
  102091:	83 c8 80             	or     $0xffffff80,%eax
  102094:	a2 95 a2 17 00       	mov    %al,0x17a295
  102099:	b8 18 35 10 00       	mov    $0x103518,%eax
  10209e:	c1 e8 10             	shr    $0x10,%eax
  1020a1:	66 a3 96 a2 17 00    	mov    %ax,0x17a296
  1020a7:	b8 20 35 10 00       	mov    $0x103520,%eax
  1020ac:	66 a3 a0 a2 17 00    	mov    %ax,0x17a2a0
  1020b2:	66 c7 05 a2 a2 17 00 	movw   $0x8,0x17a2a2
  1020b9:	08 00 
  1020bb:	0f b6 05 a4 a2 17 00 	movzbl 0x17a2a4,%eax
  1020c2:	83 e0 e0             	and    $0xffffffe0,%eax
  1020c5:	a2 a4 a2 17 00       	mov    %al,0x17a2a4
  1020ca:	0f b6 05 a4 a2 17 00 	movzbl 0x17a2a4,%eax
  1020d1:	83 e0 1f             	and    $0x1f,%eax
  1020d4:	a2 a4 a2 17 00       	mov    %al,0x17a2a4
  1020d9:	0f b6 05 a5 a2 17 00 	movzbl 0x17a2a5,%eax
  1020e0:	83 e0 f0             	and    $0xfffffff0,%eax
  1020e3:	83 c8 0e             	or     $0xe,%eax
  1020e6:	a2 a5 a2 17 00       	mov    %al,0x17a2a5
  1020eb:	0f b6 05 a5 a2 17 00 	movzbl 0x17a2a5,%eax
  1020f2:	83 e0 ef             	and    $0xffffffef,%eax
  1020f5:	a2 a5 a2 17 00       	mov    %al,0x17a2a5
  1020fa:	0f b6 05 a5 a2 17 00 	movzbl 0x17a2a5,%eax
  102101:	83 e0 9f             	and    $0xffffff9f,%eax
  102104:	a2 a5 a2 17 00       	mov    %al,0x17a2a5
  102109:	0f b6 05 a5 a2 17 00 	movzbl 0x17a2a5,%eax
  102110:	83 c8 80             	or     $0xffffff80,%eax
  102113:	a2 a5 a2 17 00       	mov    %al,0x17a2a5
  102118:	b8 20 35 10 00       	mov    $0x103520,%eax
  10211d:	c1 e8 10             	shr    $0x10,%eax
  102120:	66 a3 a6 a2 17 00    	mov    %ax,0x17a2a6
  102126:	b8 2a 35 10 00       	mov    $0x10352a,%eax
  10212b:	66 a3 a8 a2 17 00    	mov    %ax,0x17a2a8
  102131:	66 c7 05 aa a2 17 00 	movw   $0x8,0x17a2aa
  102138:	08 00 
  10213a:	0f b6 05 ac a2 17 00 	movzbl 0x17a2ac,%eax
  102141:	83 e0 e0             	and    $0xffffffe0,%eax
  102144:	a2 ac a2 17 00       	mov    %al,0x17a2ac
  102149:	0f b6 05 ac a2 17 00 	movzbl 0x17a2ac,%eax
  102150:	83 e0 1f             	and    $0x1f,%eax
  102153:	a2 ac a2 17 00       	mov    %al,0x17a2ac
  102158:	0f b6 05 ad a2 17 00 	movzbl 0x17a2ad,%eax
  10215f:	83 e0 f0             	and    $0xfffffff0,%eax
  102162:	83 c8 0e             	or     $0xe,%eax
  102165:	a2 ad a2 17 00       	mov    %al,0x17a2ad
  10216a:	0f b6 05 ad a2 17 00 	movzbl 0x17a2ad,%eax
  102171:	83 e0 ef             	and    $0xffffffef,%eax
  102174:	a2 ad a2 17 00       	mov    %al,0x17a2ad
  102179:	0f b6 05 ad a2 17 00 	movzbl 0x17a2ad,%eax
  102180:	83 e0 9f             	and    $0xffffff9f,%eax
  102183:	a2 ad a2 17 00       	mov    %al,0x17a2ad
  102188:	0f b6 05 ad a2 17 00 	movzbl 0x17a2ad,%eax
  10218f:	83 c8 80             	or     $0xffffff80,%eax
  102192:	a2 ad a2 17 00       	mov    %al,0x17a2ad
  102197:	b8 2a 35 10 00       	mov    $0x10352a,%eax
  10219c:	c1 e8 10             	shr    $0x10,%eax
  10219f:	66 a3 ae a2 17 00    	mov    %ax,0x17a2ae
  1021a5:	b8 32 35 10 00       	mov    $0x103532,%eax
  1021aa:	66 a3 b0 a2 17 00    	mov    %ax,0x17a2b0
  1021b0:	66 c7 05 b2 a2 17 00 	movw   $0x8,0x17a2b2
  1021b7:	08 00 
  1021b9:	0f b6 05 b4 a2 17 00 	movzbl 0x17a2b4,%eax
  1021c0:	83 e0 e0             	and    $0xffffffe0,%eax
  1021c3:	a2 b4 a2 17 00       	mov    %al,0x17a2b4
  1021c8:	0f b6 05 b4 a2 17 00 	movzbl 0x17a2b4,%eax
  1021cf:	83 e0 1f             	and    $0x1f,%eax
  1021d2:	a2 b4 a2 17 00       	mov    %al,0x17a2b4
  1021d7:	0f b6 05 b5 a2 17 00 	movzbl 0x17a2b5,%eax
  1021de:	83 e0 f0             	and    $0xfffffff0,%eax
  1021e1:	83 c8 0e             	or     $0xe,%eax
  1021e4:	a2 b5 a2 17 00       	mov    %al,0x17a2b5
  1021e9:	0f b6 05 b5 a2 17 00 	movzbl 0x17a2b5,%eax
  1021f0:	83 e0 ef             	and    $0xffffffef,%eax
  1021f3:	a2 b5 a2 17 00       	mov    %al,0x17a2b5
  1021f8:	0f b6 05 b5 a2 17 00 	movzbl 0x17a2b5,%eax
  1021ff:	83 e0 9f             	and    $0xffffff9f,%eax
  102202:	a2 b5 a2 17 00       	mov    %al,0x17a2b5
  102207:	0f b6 05 b5 a2 17 00 	movzbl 0x17a2b5,%eax
  10220e:	83 c8 80             	or     $0xffffff80,%eax
  102211:	a2 b5 a2 17 00       	mov    %al,0x17a2b5
  102216:	b8 32 35 10 00       	mov    $0x103532,%eax
  10221b:	c1 e8 10             	shr    $0x10,%eax
  10221e:	66 a3 b6 a2 17 00    	mov    %ax,0x17a2b6
  102224:	b8 3c 35 10 00       	mov    $0x10353c,%eax
  102229:	66 a3 b8 a2 17 00    	mov    %ax,0x17a2b8
  10222f:	66 c7 05 ba a2 17 00 	movw   $0x8,0x17a2ba
  102236:	08 00 
  102238:	0f b6 05 bc a2 17 00 	movzbl 0x17a2bc,%eax
  10223f:	83 e0 e0             	and    $0xffffffe0,%eax
  102242:	a2 bc a2 17 00       	mov    %al,0x17a2bc
  102247:	0f b6 05 bc a2 17 00 	movzbl 0x17a2bc,%eax
  10224e:	83 e0 1f             	and    $0x1f,%eax
  102251:	a2 bc a2 17 00       	mov    %al,0x17a2bc
  102256:	0f b6 05 bd a2 17 00 	movzbl 0x17a2bd,%eax
  10225d:	83 e0 f0             	and    $0xfffffff0,%eax
  102260:	83 c8 0e             	or     $0xe,%eax
  102263:	a2 bd a2 17 00       	mov    %al,0x17a2bd
  102268:	0f b6 05 bd a2 17 00 	movzbl 0x17a2bd,%eax
  10226f:	83 e0 ef             	and    $0xffffffef,%eax
  102272:	a2 bd a2 17 00       	mov    %al,0x17a2bd
  102277:	0f b6 05 bd a2 17 00 	movzbl 0x17a2bd,%eax
  10227e:	83 e0 9f             	and    $0xffffff9f,%eax
  102281:	a2 bd a2 17 00       	mov    %al,0x17a2bd
  102286:	0f b6 05 bd a2 17 00 	movzbl 0x17a2bd,%eax
  10228d:	83 c8 80             	or     $0xffffff80,%eax
  102290:	a2 bd a2 17 00       	mov    %al,0x17a2bd
  102295:	b8 3c 35 10 00       	mov    $0x10353c,%eax
  10229a:	c1 e8 10             	shr    $0x10,%eax
  10229d:	66 a3 be a2 17 00    	mov    %ax,0x17a2be
  1022a3:	b8 46 35 10 00       	mov    $0x103546,%eax
  1022a8:	66 a3 20 a3 17 00    	mov    %ax,0x17a320
  1022ae:	66 c7 05 22 a3 17 00 	movw   $0x8,0x17a322
  1022b5:	08 00 
  1022b7:	0f b6 05 24 a3 17 00 	movzbl 0x17a324,%eax
  1022be:	83 e0 e0             	and    $0xffffffe0,%eax
  1022c1:	a2 24 a3 17 00       	mov    %al,0x17a324
  1022c6:	0f b6 05 24 a3 17 00 	movzbl 0x17a324,%eax
  1022cd:	83 e0 1f             	and    $0x1f,%eax
  1022d0:	a2 24 a3 17 00       	mov    %al,0x17a324
  1022d5:	0f b6 05 25 a3 17 00 	movzbl 0x17a325,%eax
  1022dc:	83 e0 f0             	and    $0xfffffff0,%eax
  1022df:	83 c8 0e             	or     $0xe,%eax
  1022e2:	a2 25 a3 17 00       	mov    %al,0x17a325
  1022e7:	0f b6 05 25 a3 17 00 	movzbl 0x17a325,%eax
  1022ee:	83 e0 ef             	and    $0xffffffef,%eax
  1022f1:	a2 25 a3 17 00       	mov    %al,0x17a325
  1022f6:	0f b6 05 25 a3 17 00 	movzbl 0x17a325,%eax
  1022fd:	83 e0 9f             	and    $0xffffff9f,%eax
  102300:	a2 25 a3 17 00       	mov    %al,0x17a325
  102305:	0f b6 05 25 a3 17 00 	movzbl 0x17a325,%eax
  10230c:	83 c8 80             	or     $0xffffff80,%eax
  10230f:	a2 25 a3 17 00       	mov    %al,0x17a325
  102314:	b8 46 35 10 00       	mov    $0x103546,%eax
  102319:	c1 e8 10             	shr    $0x10,%eax
  10231c:	66 a3 26 a3 17 00    	mov    %ax,0x17a326
  102322:	b8 50 35 10 00       	mov    $0x103550,%eax
  102327:	66 a3 28 a3 17 00    	mov    %ax,0x17a328
  10232d:	66 c7 05 2a a3 17 00 	movw   $0x8,0x17a32a
  102334:	08 00 
  102336:	0f b6 05 2c a3 17 00 	movzbl 0x17a32c,%eax
  10233d:	83 e0 e0             	and    $0xffffffe0,%eax
  102340:	a2 2c a3 17 00       	mov    %al,0x17a32c
  102345:	0f b6 05 2c a3 17 00 	movzbl 0x17a32c,%eax
  10234c:	83 e0 1f             	and    $0x1f,%eax
  10234f:	a2 2c a3 17 00       	mov    %al,0x17a32c
  102354:	0f b6 05 2d a3 17 00 	movzbl 0x17a32d,%eax
  10235b:	83 e0 f0             	and    $0xfffffff0,%eax
  10235e:	83 c8 0e             	or     $0xe,%eax
  102361:	a2 2d a3 17 00       	mov    %al,0x17a32d
  102366:	0f b6 05 2d a3 17 00 	movzbl 0x17a32d,%eax
  10236d:	83 e0 ef             	and    $0xffffffef,%eax
  102370:	a2 2d a3 17 00       	mov    %al,0x17a32d
  102375:	0f b6 05 2d a3 17 00 	movzbl 0x17a32d,%eax
  10237c:	83 e0 9f             	and    $0xffffff9f,%eax
  10237f:	a2 2d a3 17 00       	mov    %al,0x17a32d
  102384:	0f b6 05 2d a3 17 00 	movzbl 0x17a32d,%eax
  10238b:	83 c8 80             	or     $0xffffff80,%eax
  10238e:	a2 2d a3 17 00       	mov    %al,0x17a32d
  102393:	b8 50 35 10 00       	mov    $0x103550,%eax
  102398:	c1 e8 10             	shr    $0x10,%eax
  10239b:	66 a3 2e a3 17 00    	mov    %ax,0x17a32e
  1023a1:	b8 5a 35 10 00       	mov    $0x10355a,%eax
  1023a6:	66 a3 30 a3 17 00    	mov    %ax,0x17a330
  1023ac:	66 c7 05 32 a3 17 00 	movw   $0x8,0x17a332
  1023b3:	08 00 
  1023b5:	0f b6 05 34 a3 17 00 	movzbl 0x17a334,%eax
  1023bc:	83 e0 e0             	and    $0xffffffe0,%eax
  1023bf:	a2 34 a3 17 00       	mov    %al,0x17a334
  1023c4:	0f b6 05 34 a3 17 00 	movzbl 0x17a334,%eax
  1023cb:	83 e0 1f             	and    $0x1f,%eax
  1023ce:	a2 34 a3 17 00       	mov    %al,0x17a334
  1023d3:	0f b6 05 35 a3 17 00 	movzbl 0x17a335,%eax
  1023da:	83 e0 f0             	and    $0xfffffff0,%eax
  1023dd:	83 c8 0e             	or     $0xe,%eax
  1023e0:	a2 35 a3 17 00       	mov    %al,0x17a335
  1023e5:	0f b6 05 35 a3 17 00 	movzbl 0x17a335,%eax
  1023ec:	83 e0 ef             	and    $0xffffffef,%eax
  1023ef:	a2 35 a3 17 00       	mov    %al,0x17a335
  1023f4:	0f b6 05 35 a3 17 00 	movzbl 0x17a335,%eax
  1023fb:	83 e0 9f             	and    $0xffffff9f,%eax
  1023fe:	a2 35 a3 17 00       	mov    %al,0x17a335
  102403:	0f b6 05 35 a3 17 00 	movzbl 0x17a335,%eax
  10240a:	83 c8 80             	or     $0xffffff80,%eax
  10240d:	a2 35 a3 17 00       	mov    %al,0x17a335
  102412:	b8 5a 35 10 00       	mov    $0x10355a,%eax
  102417:	c1 e8 10             	shr    $0x10,%eax
  10241a:	66 a3 36 a3 17 00    	mov    %ax,0x17a336
  102420:	b8 64 35 10 00       	mov    $0x103564,%eax
  102425:	66 a3 38 a3 17 00    	mov    %ax,0x17a338
  10242b:	66 c7 05 3a a3 17 00 	movw   $0x8,0x17a33a
  102432:	08 00 
  102434:	0f b6 05 3c a3 17 00 	movzbl 0x17a33c,%eax
  10243b:	83 e0 e0             	and    $0xffffffe0,%eax
  10243e:	a2 3c a3 17 00       	mov    %al,0x17a33c
  102443:	0f b6 05 3c a3 17 00 	movzbl 0x17a33c,%eax
  10244a:	83 e0 1f             	and    $0x1f,%eax
  10244d:	a2 3c a3 17 00       	mov    %al,0x17a33c
  102452:	0f b6 05 3d a3 17 00 	movzbl 0x17a33d,%eax
  102459:	83 e0 f0             	and    $0xfffffff0,%eax
  10245c:	83 c8 0e             	or     $0xe,%eax
  10245f:	a2 3d a3 17 00       	mov    %al,0x17a33d
  102464:	0f b6 05 3d a3 17 00 	movzbl 0x17a33d,%eax
  10246b:	83 e0 ef             	and    $0xffffffef,%eax
  10246e:	a2 3d a3 17 00       	mov    %al,0x17a33d
  102473:	0f b6 05 3d a3 17 00 	movzbl 0x17a33d,%eax
  10247a:	83 e0 9f             	and    $0xffffff9f,%eax
  10247d:	a2 3d a3 17 00       	mov    %al,0x17a33d
  102482:	0f b6 05 3d a3 17 00 	movzbl 0x17a33d,%eax
  102489:	83 c8 80             	or     $0xffffff80,%eax
  10248c:	a2 3d a3 17 00       	mov    %al,0x17a33d
  102491:	b8 64 35 10 00       	mov    $0x103564,%eax
  102496:	c1 e8 10             	shr    $0x10,%eax
  102499:	66 a3 3e a3 17 00    	mov    %ax,0x17a33e
  10249f:	b8 6e 35 10 00       	mov    $0x10356e,%eax
  1024a4:	66 a3 40 a3 17 00    	mov    %ax,0x17a340
  1024aa:	66 c7 05 42 a3 17 00 	movw   $0x8,0x17a342
  1024b1:	08 00 
  1024b3:	0f b6 05 44 a3 17 00 	movzbl 0x17a344,%eax
  1024ba:	83 e0 e0             	and    $0xffffffe0,%eax
  1024bd:	a2 44 a3 17 00       	mov    %al,0x17a344
  1024c2:	0f b6 05 44 a3 17 00 	movzbl 0x17a344,%eax
  1024c9:	83 e0 1f             	and    $0x1f,%eax
  1024cc:	a2 44 a3 17 00       	mov    %al,0x17a344
  1024d1:	0f b6 05 45 a3 17 00 	movzbl 0x17a345,%eax
  1024d8:	83 e0 f0             	and    $0xfffffff0,%eax
  1024db:	83 c8 0e             	or     $0xe,%eax
  1024de:	a2 45 a3 17 00       	mov    %al,0x17a345
  1024e3:	0f b6 05 45 a3 17 00 	movzbl 0x17a345,%eax
  1024ea:	83 e0 ef             	and    $0xffffffef,%eax
  1024ed:	a2 45 a3 17 00       	mov    %al,0x17a345
  1024f2:	0f b6 05 45 a3 17 00 	movzbl 0x17a345,%eax
  1024f9:	83 e0 9f             	and    $0xffffff9f,%eax
  1024fc:	a2 45 a3 17 00       	mov    %al,0x17a345
  102501:	0f b6 05 45 a3 17 00 	movzbl 0x17a345,%eax
  102508:	83 c8 80             	or     $0xffffff80,%eax
  10250b:	a2 45 a3 17 00       	mov    %al,0x17a345
  102510:	b8 6e 35 10 00       	mov    $0x10356e,%eax
  102515:	c1 e8 10             	shr    $0x10,%eax
  102518:	66 a3 46 a3 17 00    	mov    %ax,0x17a346
  10251e:	b8 78 35 10 00       	mov    $0x103578,%eax
  102523:	66 a3 48 a3 17 00    	mov    %ax,0x17a348
  102529:	66 c7 05 4a a3 17 00 	movw   $0x8,0x17a34a
  102530:	08 00 
  102532:	0f b6 05 4c a3 17 00 	movzbl 0x17a34c,%eax
  102539:	83 e0 e0             	and    $0xffffffe0,%eax
  10253c:	a2 4c a3 17 00       	mov    %al,0x17a34c
  102541:	0f b6 05 4c a3 17 00 	movzbl 0x17a34c,%eax
  102548:	83 e0 1f             	and    $0x1f,%eax
  10254b:	a2 4c a3 17 00       	mov    %al,0x17a34c
  102550:	0f b6 05 4d a3 17 00 	movzbl 0x17a34d,%eax
  102557:	83 e0 f0             	and    $0xfffffff0,%eax
  10255a:	83 c8 0e             	or     $0xe,%eax
  10255d:	a2 4d a3 17 00       	mov    %al,0x17a34d
  102562:	0f b6 05 4d a3 17 00 	movzbl 0x17a34d,%eax
  102569:	83 e0 ef             	and    $0xffffffef,%eax
  10256c:	a2 4d a3 17 00       	mov    %al,0x17a34d
  102571:	0f b6 05 4d a3 17 00 	movzbl 0x17a34d,%eax
  102578:	83 e0 9f             	and    $0xffffff9f,%eax
  10257b:	a2 4d a3 17 00       	mov    %al,0x17a34d
  102580:	0f b6 05 4d a3 17 00 	movzbl 0x17a34d,%eax
  102587:	83 c8 80             	or     $0xffffff80,%eax
  10258a:	a2 4d a3 17 00       	mov    %al,0x17a34d
  10258f:	b8 78 35 10 00       	mov    $0x103578,%eax
  102594:	c1 e8 10             	shr    $0x10,%eax
  102597:	66 a3 4e a3 17 00    	mov    %ax,0x17a34e
  10259d:	b8 82 35 10 00       	mov    $0x103582,%eax
  1025a2:	66 a3 50 a3 17 00    	mov    %ax,0x17a350
  1025a8:	66 c7 05 52 a3 17 00 	movw   $0x8,0x17a352
  1025af:	08 00 
  1025b1:	0f b6 05 54 a3 17 00 	movzbl 0x17a354,%eax
  1025b8:	83 e0 e0             	and    $0xffffffe0,%eax
  1025bb:	a2 54 a3 17 00       	mov    %al,0x17a354
  1025c0:	0f b6 05 54 a3 17 00 	movzbl 0x17a354,%eax
  1025c7:	83 e0 1f             	and    $0x1f,%eax
  1025ca:	a2 54 a3 17 00       	mov    %al,0x17a354
  1025cf:	0f b6 05 55 a3 17 00 	movzbl 0x17a355,%eax
  1025d6:	83 e0 f0             	and    $0xfffffff0,%eax
  1025d9:	83 c8 0e             	or     $0xe,%eax
  1025dc:	a2 55 a3 17 00       	mov    %al,0x17a355
  1025e1:	0f b6 05 55 a3 17 00 	movzbl 0x17a355,%eax
  1025e8:	83 e0 ef             	and    $0xffffffef,%eax
  1025eb:	a2 55 a3 17 00       	mov    %al,0x17a355
  1025f0:	0f b6 05 55 a3 17 00 	movzbl 0x17a355,%eax
  1025f7:	83 e0 9f             	and    $0xffffff9f,%eax
  1025fa:	a2 55 a3 17 00       	mov    %al,0x17a355
  1025ff:	0f b6 05 55 a3 17 00 	movzbl 0x17a355,%eax
  102606:	83 c8 80             	or     $0xffffff80,%eax
  102609:	a2 55 a3 17 00       	mov    %al,0x17a355
  10260e:	b8 82 35 10 00       	mov    $0x103582,%eax
  102613:	c1 e8 10             	shr    $0x10,%eax
  102616:	66 a3 56 a3 17 00    	mov    %ax,0x17a356
  10261c:	b8 8c 35 10 00       	mov    $0x10358c,%eax
  102621:	66 a3 58 a3 17 00    	mov    %ax,0x17a358
  102627:	66 c7 05 5a a3 17 00 	movw   $0x8,0x17a35a
  10262e:	08 00 
  102630:	0f b6 05 5c a3 17 00 	movzbl 0x17a35c,%eax
  102637:	83 e0 e0             	and    $0xffffffe0,%eax
  10263a:	a2 5c a3 17 00       	mov    %al,0x17a35c
  10263f:	0f b6 05 5c a3 17 00 	movzbl 0x17a35c,%eax
  102646:	83 e0 1f             	and    $0x1f,%eax
  102649:	a2 5c a3 17 00       	mov    %al,0x17a35c
  10264e:	0f b6 05 5d a3 17 00 	movzbl 0x17a35d,%eax
  102655:	83 e0 f0             	and    $0xfffffff0,%eax
  102658:	83 c8 0e             	or     $0xe,%eax
  10265b:	a2 5d a3 17 00       	mov    %al,0x17a35d
  102660:	0f b6 05 5d a3 17 00 	movzbl 0x17a35d,%eax
  102667:	83 e0 ef             	and    $0xffffffef,%eax
  10266a:	a2 5d a3 17 00       	mov    %al,0x17a35d
  10266f:	0f b6 05 5d a3 17 00 	movzbl 0x17a35d,%eax
  102676:	83 e0 9f             	and    $0xffffff9f,%eax
  102679:	a2 5d a3 17 00       	mov    %al,0x17a35d
  10267e:	0f b6 05 5d a3 17 00 	movzbl 0x17a35d,%eax
  102685:	83 c8 80             	or     $0xffffff80,%eax
  102688:	a2 5d a3 17 00       	mov    %al,0x17a35d
  10268d:	b8 8c 35 10 00       	mov    $0x10358c,%eax
  102692:	c1 e8 10             	shr    $0x10,%eax
  102695:	66 a3 5e a3 17 00    	mov    %ax,0x17a35e
  10269b:	b8 96 35 10 00       	mov    $0x103596,%eax
  1026a0:	66 a3 60 a3 17 00    	mov    %ax,0x17a360
  1026a6:	66 c7 05 62 a3 17 00 	movw   $0x8,0x17a362
  1026ad:	08 00 
  1026af:	0f b6 05 64 a3 17 00 	movzbl 0x17a364,%eax
  1026b6:	83 e0 e0             	and    $0xffffffe0,%eax
  1026b9:	a2 64 a3 17 00       	mov    %al,0x17a364
  1026be:	0f b6 05 64 a3 17 00 	movzbl 0x17a364,%eax
  1026c5:	83 e0 1f             	and    $0x1f,%eax
  1026c8:	a2 64 a3 17 00       	mov    %al,0x17a364
  1026cd:	0f b6 05 65 a3 17 00 	movzbl 0x17a365,%eax
  1026d4:	83 e0 f0             	and    $0xfffffff0,%eax
  1026d7:	83 c8 0e             	or     $0xe,%eax
  1026da:	a2 65 a3 17 00       	mov    %al,0x17a365
  1026df:	0f b6 05 65 a3 17 00 	movzbl 0x17a365,%eax
  1026e6:	83 e0 ef             	and    $0xffffffef,%eax
  1026e9:	a2 65 a3 17 00       	mov    %al,0x17a365
  1026ee:	0f b6 05 65 a3 17 00 	movzbl 0x17a365,%eax
  1026f5:	83 e0 9f             	and    $0xffffff9f,%eax
  1026f8:	a2 65 a3 17 00       	mov    %al,0x17a365
  1026fd:	0f b6 05 65 a3 17 00 	movzbl 0x17a365,%eax
  102704:	83 c8 80             	or     $0xffffff80,%eax
  102707:	a2 65 a3 17 00       	mov    %al,0x17a365
  10270c:	b8 96 35 10 00       	mov    $0x103596,%eax
  102711:	c1 e8 10             	shr    $0x10,%eax
  102714:	66 a3 66 a3 17 00    	mov    %ax,0x17a366
  10271a:	b8 a0 35 10 00       	mov    $0x1035a0,%eax
  10271f:	66 a3 68 a3 17 00    	mov    %ax,0x17a368
  102725:	66 c7 05 6a a3 17 00 	movw   $0x8,0x17a36a
  10272c:	08 00 
  10272e:	0f b6 05 6c a3 17 00 	movzbl 0x17a36c,%eax
  102735:	83 e0 e0             	and    $0xffffffe0,%eax
  102738:	a2 6c a3 17 00       	mov    %al,0x17a36c
  10273d:	0f b6 05 6c a3 17 00 	movzbl 0x17a36c,%eax
  102744:	83 e0 1f             	and    $0x1f,%eax
  102747:	a2 6c a3 17 00       	mov    %al,0x17a36c
  10274c:	0f b6 05 6d a3 17 00 	movzbl 0x17a36d,%eax
  102753:	83 e0 f0             	and    $0xfffffff0,%eax
  102756:	83 c8 0e             	or     $0xe,%eax
  102759:	a2 6d a3 17 00       	mov    %al,0x17a36d
  10275e:	0f b6 05 6d a3 17 00 	movzbl 0x17a36d,%eax
  102765:	83 e0 ef             	and    $0xffffffef,%eax
  102768:	a2 6d a3 17 00       	mov    %al,0x17a36d
  10276d:	0f b6 05 6d a3 17 00 	movzbl 0x17a36d,%eax
  102774:	83 e0 9f             	and    $0xffffff9f,%eax
  102777:	a2 6d a3 17 00       	mov    %al,0x17a36d
  10277c:	0f b6 05 6d a3 17 00 	movzbl 0x17a36d,%eax
  102783:	83 c8 80             	or     $0xffffff80,%eax
  102786:	a2 6d a3 17 00       	mov    %al,0x17a36d
  10278b:	b8 a0 35 10 00       	mov    $0x1035a0,%eax
  102790:	c1 e8 10             	shr    $0x10,%eax
  102793:	66 a3 6e a3 17 00    	mov    %ax,0x17a36e
  102799:	b8 aa 35 10 00       	mov    $0x1035aa,%eax
  10279e:	66 a3 70 a3 17 00    	mov    %ax,0x17a370
  1027a4:	66 c7 05 72 a3 17 00 	movw   $0x8,0x17a372
  1027ab:	08 00 
  1027ad:	0f b6 05 74 a3 17 00 	movzbl 0x17a374,%eax
  1027b4:	83 e0 e0             	and    $0xffffffe0,%eax
  1027b7:	a2 74 a3 17 00       	mov    %al,0x17a374
  1027bc:	0f b6 05 74 a3 17 00 	movzbl 0x17a374,%eax
  1027c3:	83 e0 1f             	and    $0x1f,%eax
  1027c6:	a2 74 a3 17 00       	mov    %al,0x17a374
  1027cb:	0f b6 05 75 a3 17 00 	movzbl 0x17a375,%eax
  1027d2:	83 e0 f0             	and    $0xfffffff0,%eax
  1027d5:	83 c8 0e             	or     $0xe,%eax
  1027d8:	a2 75 a3 17 00       	mov    %al,0x17a375
  1027dd:	0f b6 05 75 a3 17 00 	movzbl 0x17a375,%eax
  1027e4:	83 e0 ef             	and    $0xffffffef,%eax
  1027e7:	a2 75 a3 17 00       	mov    %al,0x17a375
  1027ec:	0f b6 05 75 a3 17 00 	movzbl 0x17a375,%eax
  1027f3:	83 e0 9f             	and    $0xffffff9f,%eax
  1027f6:	a2 75 a3 17 00       	mov    %al,0x17a375
  1027fb:	0f b6 05 75 a3 17 00 	movzbl 0x17a375,%eax
  102802:	83 c8 80             	or     $0xffffff80,%eax
  102805:	a2 75 a3 17 00       	mov    %al,0x17a375
  10280a:	b8 aa 35 10 00       	mov    $0x1035aa,%eax
  10280f:	c1 e8 10             	shr    $0x10,%eax
  102812:	66 a3 76 a3 17 00    	mov    %ax,0x17a376
  102818:	b8 b4 35 10 00       	mov    $0x1035b4,%eax
  10281d:	66 a3 78 a3 17 00    	mov    %ax,0x17a378
  102823:	66 c7 05 7a a3 17 00 	movw   $0x8,0x17a37a
  10282a:	08 00 
  10282c:	0f b6 05 7c a3 17 00 	movzbl 0x17a37c,%eax
  102833:	83 e0 e0             	and    $0xffffffe0,%eax
  102836:	a2 7c a3 17 00       	mov    %al,0x17a37c
  10283b:	0f b6 05 7c a3 17 00 	movzbl 0x17a37c,%eax
  102842:	83 e0 1f             	and    $0x1f,%eax
  102845:	a2 7c a3 17 00       	mov    %al,0x17a37c
  10284a:	0f b6 05 7d a3 17 00 	movzbl 0x17a37d,%eax
  102851:	83 e0 f0             	and    $0xfffffff0,%eax
  102854:	83 c8 0e             	or     $0xe,%eax
  102857:	a2 7d a3 17 00       	mov    %al,0x17a37d
  10285c:	0f b6 05 7d a3 17 00 	movzbl 0x17a37d,%eax
  102863:	83 e0 ef             	and    $0xffffffef,%eax
  102866:	a2 7d a3 17 00       	mov    %al,0x17a37d
  10286b:	0f b6 05 7d a3 17 00 	movzbl 0x17a37d,%eax
  102872:	83 e0 9f             	and    $0xffffff9f,%eax
  102875:	a2 7d a3 17 00       	mov    %al,0x17a37d
  10287a:	0f b6 05 7d a3 17 00 	movzbl 0x17a37d,%eax
  102881:	83 c8 80             	or     $0xffffff80,%eax
  102884:	a2 7d a3 17 00       	mov    %al,0x17a37d
  102889:	b8 b4 35 10 00       	mov    $0x1035b4,%eax
  10288e:	c1 e8 10             	shr    $0x10,%eax
  102891:	66 a3 7e a3 17 00    	mov    %ax,0x17a37e
  102897:	b8 be 35 10 00       	mov    $0x1035be,%eax
  10289c:	66 a3 80 a3 17 00    	mov    %ax,0x17a380
  1028a2:	66 c7 05 82 a3 17 00 	movw   $0x8,0x17a382
  1028a9:	08 00 
  1028ab:	0f b6 05 84 a3 17 00 	movzbl 0x17a384,%eax
  1028b2:	83 e0 e0             	and    $0xffffffe0,%eax
  1028b5:	a2 84 a3 17 00       	mov    %al,0x17a384
  1028ba:	0f b6 05 84 a3 17 00 	movzbl 0x17a384,%eax
  1028c1:	83 e0 1f             	and    $0x1f,%eax
  1028c4:	a2 84 a3 17 00       	mov    %al,0x17a384
  1028c9:	0f b6 05 85 a3 17 00 	movzbl 0x17a385,%eax
  1028d0:	83 e0 f0             	and    $0xfffffff0,%eax
  1028d3:	83 c8 0e             	or     $0xe,%eax
  1028d6:	a2 85 a3 17 00       	mov    %al,0x17a385
  1028db:	0f b6 05 85 a3 17 00 	movzbl 0x17a385,%eax
  1028e2:	83 e0 ef             	and    $0xffffffef,%eax
  1028e5:	a2 85 a3 17 00       	mov    %al,0x17a385
  1028ea:	0f b6 05 85 a3 17 00 	movzbl 0x17a385,%eax
  1028f1:	83 e0 9f             	and    $0xffffff9f,%eax
  1028f4:	a2 85 a3 17 00       	mov    %al,0x17a385
  1028f9:	0f b6 05 85 a3 17 00 	movzbl 0x17a385,%eax
  102900:	83 c8 80             	or     $0xffffff80,%eax
  102903:	a2 85 a3 17 00       	mov    %al,0x17a385
  102908:	b8 be 35 10 00       	mov    $0x1035be,%eax
  10290d:	c1 e8 10             	shr    $0x10,%eax
  102910:	66 a3 86 a3 17 00    	mov    %ax,0x17a386
  102916:	b8 c8 35 10 00       	mov    $0x1035c8,%eax
  10291b:	66 a3 88 a3 17 00    	mov    %ax,0x17a388
  102921:	66 c7 05 8a a3 17 00 	movw   $0x8,0x17a38a
  102928:	08 00 
  10292a:	0f b6 05 8c a3 17 00 	movzbl 0x17a38c,%eax
  102931:	83 e0 e0             	and    $0xffffffe0,%eax
  102934:	a2 8c a3 17 00       	mov    %al,0x17a38c
  102939:	0f b6 05 8c a3 17 00 	movzbl 0x17a38c,%eax
  102940:	83 e0 1f             	and    $0x1f,%eax
  102943:	a2 8c a3 17 00       	mov    %al,0x17a38c
  102948:	0f b6 05 8d a3 17 00 	movzbl 0x17a38d,%eax
  10294f:	83 e0 f0             	and    $0xfffffff0,%eax
  102952:	83 c8 0e             	or     $0xe,%eax
  102955:	a2 8d a3 17 00       	mov    %al,0x17a38d
  10295a:	0f b6 05 8d a3 17 00 	movzbl 0x17a38d,%eax
  102961:	83 e0 ef             	and    $0xffffffef,%eax
  102964:	a2 8d a3 17 00       	mov    %al,0x17a38d
  102969:	0f b6 05 8d a3 17 00 	movzbl 0x17a38d,%eax
  102970:	83 e0 9f             	and    $0xffffff9f,%eax
  102973:	a2 8d a3 17 00       	mov    %al,0x17a38d
  102978:	0f b6 05 8d a3 17 00 	movzbl 0x17a38d,%eax
  10297f:	83 c8 80             	or     $0xffffff80,%eax
  102982:	a2 8d a3 17 00       	mov    %al,0x17a38d
  102987:	b8 c8 35 10 00       	mov    $0x1035c8,%eax
  10298c:	c1 e8 10             	shr    $0x10,%eax
  10298f:	66 a3 8e a3 17 00    	mov    %ax,0x17a38e
  102995:	b8 d2 35 10 00       	mov    $0x1035d2,%eax
  10299a:	66 a3 90 a3 17 00    	mov    %ax,0x17a390
  1029a0:	66 c7 05 92 a3 17 00 	movw   $0x8,0x17a392
  1029a7:	08 00 
  1029a9:	0f b6 05 94 a3 17 00 	movzbl 0x17a394,%eax
  1029b0:	83 e0 e0             	and    $0xffffffe0,%eax
  1029b3:	a2 94 a3 17 00       	mov    %al,0x17a394
  1029b8:	0f b6 05 94 a3 17 00 	movzbl 0x17a394,%eax
  1029bf:	83 e0 1f             	and    $0x1f,%eax
  1029c2:	a2 94 a3 17 00       	mov    %al,0x17a394
  1029c7:	0f b6 05 95 a3 17 00 	movzbl 0x17a395,%eax
  1029ce:	83 e0 f0             	and    $0xfffffff0,%eax
  1029d1:	83 c8 0e             	or     $0xe,%eax
  1029d4:	a2 95 a3 17 00       	mov    %al,0x17a395
  1029d9:	0f b6 05 95 a3 17 00 	movzbl 0x17a395,%eax
  1029e0:	83 e0 ef             	and    $0xffffffef,%eax
  1029e3:	a2 95 a3 17 00       	mov    %al,0x17a395
  1029e8:	0f b6 05 95 a3 17 00 	movzbl 0x17a395,%eax
  1029ef:	83 e0 9f             	and    $0xffffff9f,%eax
  1029f2:	a2 95 a3 17 00       	mov    %al,0x17a395
  1029f7:	0f b6 05 95 a3 17 00 	movzbl 0x17a395,%eax
  1029fe:	83 c8 80             	or     $0xffffff80,%eax
  102a01:	a2 95 a3 17 00       	mov    %al,0x17a395
  102a06:	b8 d2 35 10 00       	mov    $0x1035d2,%eax
  102a0b:	c1 e8 10             	shr    $0x10,%eax
  102a0e:	66 a3 96 a3 17 00    	mov    %ax,0x17a396
  102a14:	b8 dc 35 10 00       	mov    $0x1035dc,%eax
  102a19:	66 a3 98 a3 17 00    	mov    %ax,0x17a398
  102a1f:	66 c7 05 9a a3 17 00 	movw   $0x8,0x17a39a
  102a26:	08 00 
  102a28:	0f b6 05 9c a3 17 00 	movzbl 0x17a39c,%eax
  102a2f:	83 e0 e0             	and    $0xffffffe0,%eax
  102a32:	a2 9c a3 17 00       	mov    %al,0x17a39c
  102a37:	0f b6 05 9c a3 17 00 	movzbl 0x17a39c,%eax
  102a3e:	83 e0 1f             	and    $0x1f,%eax
  102a41:	a2 9c a3 17 00       	mov    %al,0x17a39c
  102a46:	0f b6 05 9d a3 17 00 	movzbl 0x17a39d,%eax
  102a4d:	83 e0 f0             	and    $0xfffffff0,%eax
  102a50:	83 c8 0e             	or     $0xe,%eax
  102a53:	a2 9d a3 17 00       	mov    %al,0x17a39d
  102a58:	0f b6 05 9d a3 17 00 	movzbl 0x17a39d,%eax
  102a5f:	83 e0 ef             	and    $0xffffffef,%eax
  102a62:	a2 9d a3 17 00       	mov    %al,0x17a39d
  102a67:	0f b6 05 9d a3 17 00 	movzbl 0x17a39d,%eax
  102a6e:	83 e0 9f             	and    $0xffffff9f,%eax
  102a71:	a2 9d a3 17 00       	mov    %al,0x17a39d
  102a76:	0f b6 05 9d a3 17 00 	movzbl 0x17a39d,%eax
  102a7d:	83 c8 80             	or     $0xffffff80,%eax
  102a80:	a2 9d a3 17 00       	mov    %al,0x17a39d
  102a85:	b8 dc 35 10 00       	mov    $0x1035dc,%eax
  102a8a:	c1 e8 10             	shr    $0x10,%eax
  102a8d:	66 a3 9e a3 17 00    	mov    %ax,0x17a39e
  102a93:	b8 e6 35 10 00       	mov    $0x1035e6,%eax
  102a98:	66 a3 a0 a3 17 00    	mov    %ax,0x17a3a0
  102a9e:	66 c7 05 a2 a3 17 00 	movw   $0x8,0x17a3a2
  102aa5:	08 00 
  102aa7:	0f b6 05 a4 a3 17 00 	movzbl 0x17a3a4,%eax
  102aae:	83 e0 e0             	and    $0xffffffe0,%eax
  102ab1:	a2 a4 a3 17 00       	mov    %al,0x17a3a4
  102ab6:	0f b6 05 a4 a3 17 00 	movzbl 0x17a3a4,%eax
  102abd:	83 e0 1f             	and    $0x1f,%eax
  102ac0:	a2 a4 a3 17 00       	mov    %al,0x17a3a4
  102ac5:	0f b6 05 a5 a3 17 00 	movzbl 0x17a3a5,%eax
  102acc:	83 e0 f0             	and    $0xfffffff0,%eax
  102acf:	83 c8 0e             	or     $0xe,%eax
  102ad2:	a2 a5 a3 17 00       	mov    %al,0x17a3a5
  102ad7:	0f b6 05 a5 a3 17 00 	movzbl 0x17a3a5,%eax
  102ade:	83 e0 ef             	and    $0xffffffef,%eax
  102ae1:	a2 a5 a3 17 00       	mov    %al,0x17a3a5
  102ae6:	0f b6 05 a5 a3 17 00 	movzbl 0x17a3a5,%eax
  102aed:	83 c8 60             	or     $0x60,%eax
  102af0:	a2 a5 a3 17 00       	mov    %al,0x17a3a5
  102af5:	0f b6 05 a5 a3 17 00 	movzbl 0x17a3a5,%eax
  102afc:	83 c8 80             	or     $0xffffff80,%eax
  102aff:	a2 a5 a3 17 00       	mov    %al,0x17a3a5
  102b04:	b8 e6 35 10 00       	mov    $0x1035e6,%eax
  102b09:	c1 e8 10             	shr    $0x10,%eax
  102b0c:	66 a3 a6 a3 17 00    	mov    %ax,0x17a3a6
  102b12:	b8 f0 35 10 00       	mov    $0x1035f0,%eax
  102b17:	66 a3 a8 a3 17 00    	mov    %ax,0x17a3a8
  102b1d:	66 c7 05 aa a3 17 00 	movw   $0x8,0x17a3aa
  102b24:	08 00 
  102b26:	0f b6 05 ac a3 17 00 	movzbl 0x17a3ac,%eax
  102b2d:	83 e0 e0             	and    $0xffffffe0,%eax
  102b30:	a2 ac a3 17 00       	mov    %al,0x17a3ac
  102b35:	0f b6 05 ac a3 17 00 	movzbl 0x17a3ac,%eax
  102b3c:	83 e0 1f             	and    $0x1f,%eax
  102b3f:	a2 ac a3 17 00       	mov    %al,0x17a3ac
  102b44:	0f b6 05 ad a3 17 00 	movzbl 0x17a3ad,%eax
  102b4b:	83 e0 f0             	and    $0xfffffff0,%eax
  102b4e:	83 c8 0e             	or     $0xe,%eax
  102b51:	a2 ad a3 17 00       	mov    %al,0x17a3ad
  102b56:	0f b6 05 ad a3 17 00 	movzbl 0x17a3ad,%eax
  102b5d:	83 e0 ef             	and    $0xffffffef,%eax
  102b60:	a2 ad a3 17 00       	mov    %al,0x17a3ad
  102b65:	0f b6 05 ad a3 17 00 	movzbl 0x17a3ad,%eax
  102b6c:	83 e0 9f             	and    $0xffffff9f,%eax
  102b6f:	a2 ad a3 17 00       	mov    %al,0x17a3ad
  102b74:	0f b6 05 ad a3 17 00 	movzbl 0x17a3ad,%eax
  102b7b:	83 c8 80             	or     $0xffffff80,%eax
  102b7e:	a2 ad a3 17 00       	mov    %al,0x17a3ad
  102b83:	b8 f0 35 10 00       	mov    $0x1035f0,%eax
  102b88:	c1 e8 10             	shr    $0x10,%eax
  102b8b:	66 a3 ae a3 17 00    	mov    %ax,0x17a3ae
  102b91:	b8 fa 35 10 00       	mov    $0x1035fa,%eax
  102b96:	66 a3 b0 a3 17 00    	mov    %ax,0x17a3b0
  102b9c:	66 c7 05 b2 a3 17 00 	movw   $0x8,0x17a3b2
  102ba3:	08 00 
  102ba5:	0f b6 05 b4 a3 17 00 	movzbl 0x17a3b4,%eax
  102bac:	83 e0 e0             	and    $0xffffffe0,%eax
  102baf:	a2 b4 a3 17 00       	mov    %al,0x17a3b4
  102bb4:	0f b6 05 b4 a3 17 00 	movzbl 0x17a3b4,%eax
  102bbb:	83 e0 1f             	and    $0x1f,%eax
  102bbe:	a2 b4 a3 17 00       	mov    %al,0x17a3b4
  102bc3:	0f b6 05 b5 a3 17 00 	movzbl 0x17a3b5,%eax
  102bca:	83 e0 f0             	and    $0xfffffff0,%eax
  102bcd:	83 c8 0e             	or     $0xe,%eax
  102bd0:	a2 b5 a3 17 00       	mov    %al,0x17a3b5
  102bd5:	0f b6 05 b5 a3 17 00 	movzbl 0x17a3b5,%eax
  102bdc:	83 e0 ef             	and    $0xffffffef,%eax
  102bdf:	a2 b5 a3 17 00       	mov    %al,0x17a3b5
  102be4:	0f b6 05 b5 a3 17 00 	movzbl 0x17a3b5,%eax
  102beb:	83 e0 9f             	and    $0xffffff9f,%eax
  102bee:	a2 b5 a3 17 00       	mov    %al,0x17a3b5
  102bf3:	0f b6 05 b5 a3 17 00 	movzbl 0x17a3b5,%eax
  102bfa:	83 c8 80             	or     $0xffffff80,%eax
  102bfd:	a2 b5 a3 17 00       	mov    %al,0x17a3b5
  102c02:	b8 fa 35 10 00       	mov    $0x1035fa,%eax
  102c07:	c1 e8 10             	shr    $0x10,%eax
  102c0a:	66 a3 b6 a3 17 00    	mov    %ax,0x17a3b6
  102c10:	c9                   	leave  
  102c11:	c3                   	ret    

00102c12 <trap_init>:
  102c12:	55                   	push   %ebp
  102c13:	89 e5                	mov    %esp,%ebp
  102c15:	83 ec 08             	sub    $0x8,%esp
  102c18:	e8 20 00 00 00       	call   102c3d <cpu_onboot>
  102c1d:	85 c0                	test   %eax,%eax
  102c1f:	74 05                	je     102c26 <trap_init+0x14>
  102c21:	e8 ba ec ff ff       	call   1018e0 <trap_init_idt>
  102c26:	0f 01 1d 04 f0 10 00 	lidtl  0x10f004
  102c2d:	e8 0b 00 00 00       	call   102c3d <cpu_onboot>
  102c32:	85 c0                	test   %eax,%eax
  102c34:	74 05                	je     102c3b <trap_init+0x29>
  102c36:	e8 31 05 00 00       	call   10316c <trap_check_kernel>
  102c3b:	c9                   	leave  
  102c3c:	c3                   	ret    

00102c3d <cpu_onboot>:
}

// Returns true if we're running on the bootstrap CPU.
static inline int
cpu_onboot() {
  102c3d:	55                   	push   %ebp
  102c3e:	89 e5                	mov    %esp,%ebp
  102c40:	83 ec 08             	sub    $0x8,%esp
	return cpu_cur() == &cpu_boot;
  102c43:	e8 0d 00 00 00       	call   102c55 <cpu_cur>
  102c48:	3d 00 e0 10 00       	cmp    $0x10e000,%eax
  102c4d:	0f 94 c0             	sete   %al
  102c50:	0f b6 c0             	movzbl %al,%eax
}
  102c53:	c9                   	leave  
  102c54:	c3                   	ret    

00102c55 <cpu_cur>:
  102c55:	55                   	push   %ebp
  102c56:	89 e5                	mov    %esp,%ebp
  102c58:	83 ec 28             	sub    $0x28,%esp
static gcc_inline uint32_t
read_esp(void)
{
        uint32_t esp;
        __asm __volatile("movl %%esp,%0" : "=rm" (esp));
  102c5b:	89 65 fc             	mov    %esp,0xfffffffc(%ebp)
        return esp;
  102c5e:	8b 45 fc             	mov    0xfffffffc(%ebp),%eax
// Find the CPU struct representing the current CPU.
// It always resides at the bottom of the page containing the CPU's stack.
static inline cpu *
cpu_cur() {
	cpu *c = (cpu*)ROUNDDOWN(read_esp(), PAGESIZE);
  102c61:	89 45 f8             	mov    %eax,0xfffffff8(%ebp)
  102c64:	8b 45 f8             	mov    0xfffffff8(%ebp),%eax
  102c67:	25 00 f0 ff ff       	and    $0xfffff000,%eax
  102c6c:	89 45 f4             	mov    %eax,0xfffffff4(%ebp)
	assert(c->magic == CPU_MAGIC);
  102c6f:	8b 45 f4             	mov    0xfffffff4(%ebp),%eax
  102c72:	8b 80 b8 00 00 00    	mov    0xb8(%eax),%eax
  102c78:	3d 32 54 76 98       	cmp    $0x98765432,%eax
  102c7d:	74 24                	je     102ca3 <cpu_cur+0x4e>
  102c7f:	c7 44 24 0c 60 c2 10 	movl   $0x10c260,0xc(%esp)
  102c86:	00 
  102c87:	c7 44 24 08 76 c2 10 	movl   $0x10c276,0x8(%esp)
  102c8e:	00 
  102c8f:	c7 44 24 04 5c 00 00 	movl   $0x5c,0x4(%esp)
  102c96:	00 
  102c97:	c7 04 24 8b c2 10 00 	movl   $0x10c28b,(%esp)
  102c9e:	e8 95 dc ff ff       	call   100938 <debug_panic>
	return c;
  102ca3:	8b 45 f4             	mov    0xfffffff4(%ebp),%eax
}
  102ca6:	c9                   	leave  
  102ca7:	c3                   	ret    

00102ca8 <trap_name>:
  102ca8:	55                   	push   %ebp
  102ca9:	89 e5                	mov    %esp,%ebp
  102cab:	83 ec 04             	sub    $0x4,%esp
  102cae:	8b 45 08             	mov    0x8(%ebp),%eax
  102cb1:	83 f8 13             	cmp    $0x13,%eax
  102cb4:	77 0f                	ja     102cc5 <trap_name+0x1d>
  102cb6:	8b 45 08             	mov    0x8(%ebp),%eax
  102cb9:	8b 04 85 00 c4 10 00 	mov    0x10c400(,%eax,4),%eax
  102cc0:	89 45 fc             	mov    %eax,0xfffffffc(%ebp)
  102cc3:	eb 2b                	jmp    102cf0 <trap_name+0x48>
  102cc5:	83 7d 08 30          	cmpl   $0x30,0x8(%ebp)
  102cc9:	75 09                	jne    102cd4 <trap_name+0x2c>
  102ccb:	c7 45 fc 50 c4 10 00 	movl   $0x10c450,0xfffffffc(%ebp)
  102cd2:	eb 1c                	jmp    102cf0 <trap_name+0x48>
  102cd4:	83 7d 08 1f          	cmpl   $0x1f,0x8(%ebp)
  102cd8:	7e 0f                	jle    102ce9 <trap_name+0x41>
  102cda:	83 7d 08 2f          	cmpl   $0x2f,0x8(%ebp)
  102cde:	7f 09                	jg     102ce9 <trap_name+0x41>
  102ce0:	c7 45 fc 5c c4 10 00 	movl   $0x10c45c,0xfffffffc(%ebp)
  102ce7:	eb 07                	jmp    102cf0 <trap_name+0x48>
  102ce9:	c7 45 fc 82 c3 10 00 	movl   $0x10c382,0xfffffffc(%ebp)
  102cf0:	8b 45 fc             	mov    0xfffffffc(%ebp),%eax
  102cf3:	c9                   	leave  
  102cf4:	c3                   	ret    

00102cf5 <trap_print_regs>:
  102cf5:	55                   	push   %ebp
  102cf6:	89 e5                	mov    %esp,%ebp
  102cf8:	83 ec 08             	sub    $0x8,%esp
  102cfb:	8b 45 08             	mov    0x8(%ebp),%eax
  102cfe:	8b 00                	mov    (%eax),%eax
  102d00:	89 44 24 04          	mov    %eax,0x4(%esp)
  102d04:	c7 04 24 6f c4 10 00 	movl   $0x10c46f,(%esp)
  102d0b:	e8 75 87 00 00       	call   10b485 <cprintf>
  102d10:	8b 45 08             	mov    0x8(%ebp),%eax
  102d13:	8b 40 04             	mov    0x4(%eax),%eax
  102d16:	89 44 24 04          	mov    %eax,0x4(%esp)
  102d1a:	c7 04 24 7e c4 10 00 	movl   $0x10c47e,(%esp)
  102d21:	e8 5f 87 00 00       	call   10b485 <cprintf>
  102d26:	8b 45 08             	mov    0x8(%ebp),%eax
  102d29:	8b 40 08             	mov    0x8(%eax),%eax
  102d2c:	89 44 24 04          	mov    %eax,0x4(%esp)
  102d30:	c7 04 24 8d c4 10 00 	movl   $0x10c48d,(%esp)
  102d37:	e8 49 87 00 00       	call   10b485 <cprintf>
  102d3c:	8b 45 08             	mov    0x8(%ebp),%eax
  102d3f:	8b 40 10             	mov    0x10(%eax),%eax
  102d42:	89 44 24 04          	mov    %eax,0x4(%esp)
  102d46:	c7 04 24 9c c4 10 00 	movl   $0x10c49c,(%esp)
  102d4d:	e8 33 87 00 00       	call   10b485 <cprintf>
  102d52:	8b 45 08             	mov    0x8(%ebp),%eax
  102d55:	8b 40 14             	mov    0x14(%eax),%eax
  102d58:	89 44 24 04          	mov    %eax,0x4(%esp)
  102d5c:	c7 04 24 ab c4 10 00 	movl   $0x10c4ab,(%esp)
  102d63:	e8 1d 87 00 00       	call   10b485 <cprintf>
  102d68:	8b 45 08             	mov    0x8(%ebp),%eax
  102d6b:	8b 40 18             	mov    0x18(%eax),%eax
  102d6e:	89 44 24 04          	mov    %eax,0x4(%esp)
  102d72:	c7 04 24 ba c4 10 00 	movl   $0x10c4ba,(%esp)
  102d79:	e8 07 87 00 00       	call   10b485 <cprintf>
  102d7e:	8b 45 08             	mov    0x8(%ebp),%eax
  102d81:	8b 40 1c             	mov    0x1c(%eax),%eax
  102d84:	89 44 24 04          	mov    %eax,0x4(%esp)
  102d88:	c7 04 24 c9 c4 10 00 	movl   $0x10c4c9,(%esp)
  102d8f:	e8 f1 86 00 00       	call   10b485 <cprintf>
  102d94:	c9                   	leave  
  102d95:	c3                   	ret    

00102d96 <trap_print>:
  102d96:	55                   	push   %ebp
  102d97:	89 e5                	mov    %esp,%ebp
  102d99:	83 ec 18             	sub    $0x18,%esp
  102d9c:	8b 45 08             	mov    0x8(%ebp),%eax
  102d9f:	89 44 24 04          	mov    %eax,0x4(%esp)
  102da3:	c7 04 24 d8 c4 10 00 	movl   $0x10c4d8,(%esp)
  102daa:	e8 d6 86 00 00       	call   10b485 <cprintf>
  102daf:	8b 45 08             	mov    0x8(%ebp),%eax
  102db2:	89 04 24             	mov    %eax,(%esp)
  102db5:	e8 3b ff ff ff       	call   102cf5 <trap_print_regs>
  102dba:	8b 45 08             	mov    0x8(%ebp),%eax
  102dbd:	0f b7 40 28          	movzwl 0x28(%eax),%eax
  102dc1:	0f b7 c0             	movzwl %ax,%eax
  102dc4:	89 44 24 04          	mov    %eax,0x4(%esp)
  102dc8:	c7 04 24 ea c4 10 00 	movl   $0x10c4ea,(%esp)
  102dcf:	e8 b1 86 00 00       	call   10b485 <cprintf>
  102dd4:	8b 45 08             	mov    0x8(%ebp),%eax
  102dd7:	0f b7 40 2c          	movzwl 0x2c(%eax),%eax
  102ddb:	0f b7 c0             	movzwl %ax,%eax
  102dde:	89 44 24 04          	mov    %eax,0x4(%esp)
  102de2:	c7 04 24 fd c4 10 00 	movl   $0x10c4fd,(%esp)
  102de9:	e8 97 86 00 00       	call   10b485 <cprintf>
  102dee:	8b 45 08             	mov    0x8(%ebp),%eax
  102df1:	8b 40 30             	mov    0x30(%eax),%eax
  102df4:	89 04 24             	mov    %eax,(%esp)
  102df7:	e8 ac fe ff ff       	call   102ca8 <trap_name>
  102dfc:	89 c2                	mov    %eax,%edx
  102dfe:	8b 45 08             	mov    0x8(%ebp),%eax
  102e01:	8b 40 30             	mov    0x30(%eax),%eax
  102e04:	89 54 24 08          	mov    %edx,0x8(%esp)
  102e08:	89 44 24 04          	mov    %eax,0x4(%esp)
  102e0c:	c7 04 24 10 c5 10 00 	movl   $0x10c510,(%esp)
  102e13:	e8 6d 86 00 00       	call   10b485 <cprintf>
  102e18:	8b 45 08             	mov    0x8(%ebp),%eax
  102e1b:	8b 40 34             	mov    0x34(%eax),%eax
  102e1e:	89 44 24 04          	mov    %eax,0x4(%esp)
  102e22:	c7 04 24 22 c5 10 00 	movl   $0x10c522,(%esp)
  102e29:	e8 57 86 00 00       	call   10b485 <cprintf>
  102e2e:	8b 45 08             	mov    0x8(%ebp),%eax
  102e31:	8b 40 38             	mov    0x38(%eax),%eax
  102e34:	89 44 24 04          	mov    %eax,0x4(%esp)
  102e38:	c7 04 24 31 c5 10 00 	movl   $0x10c531,(%esp)
  102e3f:	e8 41 86 00 00       	call   10b485 <cprintf>
  102e44:	8b 45 08             	mov    0x8(%ebp),%eax
  102e47:	0f b7 40 3c          	movzwl 0x3c(%eax),%eax
  102e4b:	0f b7 c0             	movzwl %ax,%eax
  102e4e:	89 44 24 04          	mov    %eax,0x4(%esp)
  102e52:	c7 04 24 40 c5 10 00 	movl   $0x10c540,(%esp)
  102e59:	e8 27 86 00 00       	call   10b485 <cprintf>
  102e5e:	8b 45 08             	mov    0x8(%ebp),%eax
  102e61:	8b 40 40             	mov    0x40(%eax),%eax
  102e64:	89 44 24 04          	mov    %eax,0x4(%esp)
  102e68:	c7 04 24 53 c5 10 00 	movl   $0x10c553,(%esp)
  102e6f:	e8 11 86 00 00       	call   10b485 <cprintf>
  102e74:	8b 45 08             	mov    0x8(%ebp),%eax
  102e77:	8b 40 44             	mov    0x44(%eax),%eax
  102e7a:	89 44 24 04          	mov    %eax,0x4(%esp)
  102e7e:	c7 04 24 62 c5 10 00 	movl   $0x10c562,(%esp)
  102e85:	e8 fb 85 00 00       	call   10b485 <cprintf>
  102e8a:	8b 45 08             	mov    0x8(%ebp),%eax
  102e8d:	0f b7 40 48          	movzwl 0x48(%eax),%eax
  102e91:	0f b7 c0             	movzwl %ax,%eax
  102e94:	89 44 24 04          	mov    %eax,0x4(%esp)
  102e98:	c7 04 24 71 c5 10 00 	movl   $0x10c571,(%esp)
  102e9f:	e8 e1 85 00 00       	call   10b485 <cprintf>
  102ea4:	c9                   	leave  
  102ea5:	c3                   	ret    

00102ea6 <trap>:
  102ea6:	55                   	push   %ebp
  102ea7:	89 e5                	mov    %esp,%ebp
  102ea9:	53                   	push   %ebx
  102eaa:	83 ec 24             	sub    $0x24,%esp
  102ead:	fc                   	cld    
  102eae:	8b 45 08             	mov    0x8(%ebp),%eax
  102eb1:	8b 40 30             	mov    0x30(%eax),%eax
  102eb4:	83 f8 0e             	cmp    $0xe,%eax
  102eb7:	75 0b                	jne    102ec4 <trap+0x1e>
  102eb9:	8b 45 08             	mov    0x8(%ebp),%eax
  102ebc:	89 04 24             	mov    %eax,(%esp)
  102ebf:	e8 c1 41 00 00       	call   107085 <pmap_pagefault>
  102ec4:	e8 8c fd ff ff       	call   102c55 <cpu_cur>
  102ec9:	89 45 ec             	mov    %eax,0xffffffec(%ebp)
  102ecc:	8b 45 ec             	mov    0xffffffec(%ebp),%eax
  102ecf:	8b 80 a0 00 00 00    	mov    0xa0(%eax),%eax
  102ed5:	85 c0                	test   %eax,%eax
  102ed7:	74 1e                	je     102ef7 <trap+0x51>
  102ed9:	8b 45 ec             	mov    0xffffffec(%ebp),%eax
  102edc:	8b 90 a0 00 00 00    	mov    0xa0(%eax),%edx
  102ee2:	8b 45 ec             	mov    0xffffffec(%ebp),%eax
  102ee5:	8b 80 a4 00 00 00    	mov    0xa4(%eax),%eax
  102eeb:	89 44 24 04          	mov    %eax,0x4(%esp)
  102eef:	8b 45 08             	mov    0x8(%ebp),%eax
  102ef2:	89 04 24             	mov    %eax,(%esp)
  102ef5:	ff d2                	call   *%edx
  102ef7:	e8 59 fd ff ff       	call   102c55 <cpu_cur>
  102efc:	8b 80 b4 00 00 00    	mov    0xb4(%eax),%eax
  102f02:	89 45 f0             	mov    %eax,0xfffffff0(%ebp)
  102f05:	8b 45 08             	mov    0x8(%ebp),%eax
  102f08:	8b 40 30             	mov    0x30(%eax),%eax
  102f0b:	83 e8 03             	sub    $0x3,%eax
  102f0e:	89 45 e8             	mov    %eax,0xffffffe8(%ebp)
  102f11:	83 7d e8 2f          	cmpl   $0x2f,0xffffffe8(%ebp)
  102f15:	0f 87 80 01 00 00    	ja     10309b <trap+0x1f5>
  102f1b:	8b 55 e8             	mov    0xffffffe8(%ebp),%edx
  102f1e:	8b 04 95 fc c5 10 00 	mov    0x10c5fc(,%edx,4),%eax
  102f25:	ff e0                	jmp    *%eax
  102f27:	8b 45 08             	mov    0x8(%ebp),%eax
  102f2a:	0f b7 40 3c          	movzwl 0x3c(%eax),%eax
  102f2e:	0f b7 c0             	movzwl %ax,%eax
  102f31:	83 e0 03             	and    $0x3,%eax
  102f34:	85 c0                	test   %eax,%eax
  102f36:	75 24                	jne    102f5c <trap+0xb6>
  102f38:	c7 44 24 0c 84 c5 10 	movl   $0x10c584,0xc(%esp)
  102f3f:	00 
  102f40:	c7 44 24 08 76 c2 10 	movl   $0x10c276,0x8(%esp)
  102f47:	00 
  102f48:	c7 44 24 04 fd 00 00 	movl   $0xfd,0x4(%esp)
  102f4f:	00 
  102f50:	c7 04 24 8f c5 10 00 	movl   $0x10c58f,(%esp)
  102f57:	e8 dc d9 ff ff       	call   100938 <debug_panic>
  102f5c:	8b 45 08             	mov    0x8(%ebp),%eax
  102f5f:	89 04 24             	mov    %eax,(%esp)
  102f62:	e8 60 2b 00 00       	call   105ac7 <syscall>
  102f67:	e9 2f 01 00 00       	jmp    10309b <trap+0x1f5>
  102f6c:	8b 45 08             	mov    0x8(%ebp),%eax
  102f6f:	0f b7 40 3c          	movzwl 0x3c(%eax),%eax
  102f73:	0f b7 c0             	movzwl %ax,%eax
  102f76:	83 e0 03             	and    $0x3,%eax
  102f79:	85 c0                	test   %eax,%eax
  102f7b:	75 24                	jne    102fa1 <trap+0xfb>
  102f7d:	c7 44 24 0c 84 c5 10 	movl   $0x10c584,0xc(%esp)
  102f84:	00 
  102f85:	c7 44 24 08 76 c2 10 	movl   $0x10c276,0x8(%esp)
  102f8c:	00 
  102f8d:	c7 44 24 04 03 01 00 	movl   $0x103,0x4(%esp)
  102f94:	00 
  102f95:	c7 04 24 8f c5 10 00 	movl   $0x10c58f,(%esp)
  102f9c:	e8 97 d9 ff ff       	call   100938 <debug_panic>
  102fa1:	c7 44 24 04 01 00 00 	movl   $0x1,0x4(%esp)
  102fa8:	00 
  102fa9:	8b 45 08             	mov    0x8(%ebp),%eax
  102fac:	89 04 24             	mov    %eax,(%esp)
  102faf:	e8 f1 17 00 00       	call   1047a5 <proc_ret>
  102fb4:	8b 45 f0             	mov    0xfffffff0(%ebp),%eax
  102fb7:	8b 80 9c 04 00 00    	mov    0x49c(%eax),%eax
  102fbd:	89 c2                	mov    %eax,%edx
  102fbf:	83 ca 01             	or     $0x1,%edx
  102fc2:	8b 45 f0             	mov    0xfffffff0(%ebp),%eax
  102fc5:	89 90 9c 04 00 00    	mov    %edx,0x49c(%eax)
static gcc_inline uint32_t
rcr0(void)
{
	uint32_t val;
	__asm __volatile("movl %%cr0,%0" : "=r" (val));
  102fcb:	0f 20 c0             	mov    %cr0,%eax
  102fce:	89 45 f4             	mov    %eax,0xfffffff4(%ebp)
	return val;
  102fd1:	8b 45 f4             	mov    0xfffffff4(%ebp),%eax
  102fd4:	83 e0 f7             	and    $0xfffffff7,%eax
  102fd7:	89 45 f8             	mov    %eax,0xfffffff8(%ebp)
  102fda:	8b 45 f8             	mov    0xfffffff8(%ebp),%eax
  102fdd:	0f 22 c0             	mov    %eax,%cr0
  102fe0:	8b 45 f0             	mov    0xfffffff0(%ebp),%eax
  102fe3:	0f ae 88 a0 04 00 00 	fxrstor 0x4a0(%eax)
  102fea:	8b 45 08             	mov    0x8(%ebp),%eax
  102fed:	89 04 24             	mov    %eax,(%esp)
  102ff0:	e8 3b 06 00 00       	call   103630 <trap_return>
  102ff5:	e8 4a 79 00 00       	call   10a944 <lapic_eoi>
  102ffa:	8b 45 08             	mov    0x8(%ebp),%eax
  102ffd:	0f b7 40 3c          	movzwl 0x3c(%eax),%eax
  103001:	0f b7 c0             	movzwl %ax,%eax
  103004:	83 e0 03             	and    $0x3,%eax
  103007:	85 c0                	test   %eax,%eax
  103009:	74 0b                	je     103016 <trap+0x170>
  10300b:	8b 45 08             	mov    0x8(%ebp),%eax
  10300e:	89 04 24             	mov    %eax,(%esp)
  103011:	e8 0d 17 00 00       	call   104723 <proc_yield>
  103016:	8b 45 08             	mov    0x8(%ebp),%eax
  103019:	89 04 24             	mov    %eax,(%esp)
  10301c:	e8 0f 06 00 00       	call   103630 <trap_return>
  103021:	e8 43 79 00 00       	call   10a969 <lapic_errintr>
  103026:	8b 45 08             	mov    0x8(%ebp),%eax
  103029:	89 04 24             	mov    %eax,(%esp)
  10302c:	e8 ff 05 00 00       	call   103630 <trap_return>
  103031:	e8 be 72 00 00       	call   10a2f4 <kbd_intr>
  103036:	e8 09 79 00 00       	call   10a944 <lapic_eoi>
  10303b:	8b 45 08             	mov    0x8(%ebp),%eax
  10303e:	89 04 24             	mov    %eax,(%esp)
  103041:	e8 ea 05 00 00       	call   103630 <trap_return>
  103046:	e8 f9 78 00 00       	call   10a944 <lapic_eoi>
  10304b:	e8 6c 73 00 00       	call   10a3bc <serial_intr>
  103050:	8b 45 08             	mov    0x8(%ebp),%eax
  103053:	89 04 24             	mov    %eax,(%esp)
  103056:	e8 d5 05 00 00       	call   103630 <trap_return>
  10305b:	8b 45 08             	mov    0x8(%ebp),%eax
  10305e:	8b 48 38             	mov    0x38(%eax),%ecx
  103061:	8b 45 08             	mov    0x8(%ebp),%eax
  103064:	0f b7 40 3c          	movzwl 0x3c(%eax),%eax
  103068:	0f b7 d0             	movzwl %ax,%edx
  10306b:	8b 45 ec             	mov    0xffffffec(%ebp),%eax
  10306e:	0f b6 80 ac 00 00 00 	movzbl 0xac(%eax),%eax
  103075:	0f b6 c0             	movzbl %al,%eax
  103078:	89 4c 24 0c          	mov    %ecx,0xc(%esp)
  10307c:	89 54 24 08          	mov    %edx,0x8(%esp)
  103080:	89 44 24 04          	mov    %eax,0x4(%esp)
  103084:	c7 04 24 a0 c5 10 00 	movl   $0x10c5a0,(%esp)
  10308b:	e8 f5 83 00 00       	call   10b485 <cprintf>
  103090:	8b 45 08             	mov    0x8(%ebp),%eax
  103093:	89 04 24             	mov    %eax,(%esp)
  103096:	e8 95 05 00 00       	call   103630 <trap_return>
  10309b:	8b 45 08             	mov    0x8(%ebp),%eax
  10309e:	0f b7 40 3c          	movzwl 0x3c(%eax),%eax
  1030a2:	0f b7 c0             	movzwl %ax,%eax
  1030a5:	83 e0 03             	and    $0x3,%eax
  1030a8:	85 c0                	test   %eax,%eax
  1030aa:	74 4b                	je     1030f7 <trap+0x251>
  1030ac:	e8 a4 fb ff ff       	call   102c55 <cpu_cur>
  1030b1:	8b 80 b4 00 00 00    	mov    0xb4(%eax),%eax
  1030b7:	8b 58 38             	mov    0x38(%eax),%ebx
  1030ba:	e8 96 fb ff ff       	call   102c55 <cpu_cur>
  1030bf:	8b 80 b4 00 00 00    	mov    0xb4(%eax),%eax
  1030c5:	89 5c 24 08          	mov    %ebx,0x8(%esp)
  1030c9:	89 44 24 04          	mov    %eax,0x4(%esp)
  1030cd:	c7 04 24 c4 c5 10 00 	movl   $0x10c5c4,(%esp)
  1030d4:	e8 ac 83 00 00       	call   10b485 <cprintf>
  1030d9:	8b 45 08             	mov    0x8(%ebp),%eax
  1030dc:	89 04 24             	mov    %eax,(%esp)
  1030df:	e8 b2 fc ff ff       	call   102d96 <trap_print>
  1030e4:	c7 44 24 04 ff ff ff 	movl   $0xffffffff,0x4(%esp)
  1030eb:	ff 
  1030ec:	8b 45 08             	mov    0x8(%ebp),%eax
  1030ef:	89 04 24             	mov    %eax,(%esp)
  1030f2:	e8 ae 16 00 00       	call   1047a5 <proc_ret>
  1030f7:	c7 04 24 40 ed 17 00 	movl   $0x17ed40,(%esp)
  1030fe:	e8 dc 0a 00 00       	call   103bdf <spinlock_holding>
  103103:	85 c0                	test   %eax,%eax
  103105:	74 0c                	je     103113 <trap+0x26d>
  103107:	c7 04 24 40 ed 17 00 	movl   $0x17ed40,(%esp)
  10310e:	e8 72 0a 00 00       	call   103b85 <spinlock_release>
  103113:	8b 45 08             	mov    0x8(%ebp),%eax
  103116:	89 04 24             	mov    %eax,(%esp)
  103119:	e8 78 fc ff ff       	call   102d96 <trap_print>
  10311e:	c7 44 24 08 ec c5 10 	movl   $0x10c5ec,0x8(%esp)
  103125:	00 
  103126:	c7 44 24 04 8e 01 00 	movl   $0x18e,0x4(%esp)
  10312d:	00 
  10312e:	c7 04 24 8f c5 10 00 	movl   $0x10c58f,(%esp)
  103135:	e8 fe d7 ff ff       	call   100938 <debug_panic>

0010313a <trap_check_recover>:
  10313a:	55                   	push   %ebp
  10313b:	89 e5                	mov    %esp,%ebp
  10313d:	83 ec 18             	sub    $0x18,%esp
  103140:	8b 45 0c             	mov    0xc(%ebp),%eax
  103143:	89 45 fc             	mov    %eax,0xfffffffc(%ebp)
  103146:	8b 45 fc             	mov    0xfffffffc(%ebp),%eax
  103149:	8b 00                	mov    (%eax),%eax
  10314b:	89 c2                	mov    %eax,%edx
  10314d:	8b 45 08             	mov    0x8(%ebp),%eax
  103150:	89 50 38             	mov    %edx,0x38(%eax)
  103153:	8b 45 08             	mov    0x8(%ebp),%eax
  103156:	8b 40 30             	mov    0x30(%eax),%eax
  103159:	89 c2                	mov    %eax,%edx
  10315b:	8b 45 fc             	mov    0xfffffffc(%ebp),%eax
  10315e:	89 50 04             	mov    %edx,0x4(%eax)
  103161:	8b 45 08             	mov    0x8(%ebp),%eax
  103164:	89 04 24             	mov    %eax,(%esp)
  103167:	e8 c4 04 00 00       	call   103630 <trap_return>

0010316c <trap_check_kernel>:
  10316c:	55                   	push   %ebp
  10316d:	89 e5                	mov    %esp,%ebp
  10316f:	83 ec 28             	sub    $0x28,%esp
}

static gcc_inline uint32_t
rcr2(void)
{
	uint32_t val;
	__asm __volatile("movl %%cr2,%0" : "=r" (val));
	return val;
}

static gcc_inline void
lcr3(uint32_t val)
{
	__asm __volatile("movl %0,%%cr3" : : "r" (val));
}

static gcc_inline uint32_t
rcr3(void)
{
	uint32_t val;
	__asm __volatile("movl %%cr3,%0" : "=r" (val));
	return val;
}

static gcc_inline void
lcr4(uint32_t val)
{
	__asm __volatile("movl %0,%%cr4" : : "r" (val));
}

static gcc_inline uint32_t
rcr4(void)
{
	uint32_t cr4;
	__asm __volatile("movl %%cr4,%0" : "=r" (cr4));
	return cr4;
}

static gcc_inline void
tlbflush(void)
{
	uint32_t cr3;
	__asm __volatile("movl %%cr3,%0" : "=r" (cr3));
	__asm __volatile("movl %0,%%cr3" : : "r" (cr3));
}

static gcc_inline uint32_t
read_eflags(void)
{
        uint32_t eflags;
        __asm __volatile("pushfl; popl %0" : "=rm" (eflags));
        return eflags;
}

static gcc_inline void
write_eflags(uint32_t eflags)
{
        __asm __volatile("pushl %0; popfl" : : "rm" (eflags));
}

static gcc_inline uint32_t
read_ebp(void)
{
        uint32_t ebp;
        __asm __volatile("movl %%ebp,%0" : "=rm" (ebp));
        return ebp;
}

static gcc_inline uint32_t
read_esp(void)
{
        uint32_t esp;
        __asm __volatile("movl %%esp,%0" : "=rm" (esp));
        return esp;
}

static gcc_inline uint16_t
read_cs(void)
{
        uint16_t cs;
        __asm __volatile("movw %%cs,%0" : "=rm" (cs));
  103172:	8c 4d fe             	movw   %cs,0xfffffffe(%ebp)
        return cs;
  103175:	0f b7 45 fe          	movzwl 0xfffffffe(%ebp),%eax
  103179:	0f b7 c0             	movzwl %ax,%eax
  10317c:	83 e0 03             	and    $0x3,%eax
  10317f:	85 c0                	test   %eax,%eax
  103181:	74 24                	je     1031a7 <trap_check_kernel+0x3b>
  103183:	c7 44 24 0c bc c6 10 	movl   $0x10c6bc,0xc(%esp)
  10318a:	00 
  10318b:	c7 44 24 08 76 c2 10 	movl   $0x10c276,0x8(%esp)
  103192:	00 
  103193:	c7 44 24 04 a2 01 00 	movl   $0x1a2,0x4(%esp)
  10319a:	00 
  10319b:	c7 04 24 8f c5 10 00 	movl   $0x10c58f,(%esp)
  1031a2:	e8 91 d7 ff ff       	call   100938 <debug_panic>
  1031a7:	e8 a9 fa ff ff       	call   102c55 <cpu_cur>
  1031ac:	89 45 f8             	mov    %eax,0xfffffff8(%ebp)
  1031af:	8b 45 f8             	mov    0xfffffff8(%ebp),%eax
  1031b2:	c7 80 a0 00 00 00 3a 	movl   $0x10313a,0xa0(%eax)
  1031b9:	31 10 00 
  1031bc:	8b 45 f8             	mov    0xfffffff8(%ebp),%eax
  1031bf:	05 a4 00 00 00       	add    $0xa4,%eax
  1031c4:	89 04 24             	mov    %eax,(%esp)
  1031c7:	e8 96 00 00 00       	call   103262 <trap_check>
  1031cc:	8b 45 f8             	mov    0xfffffff8(%ebp),%eax
  1031cf:	c7 80 a0 00 00 00 00 	movl   $0x0,0xa0(%eax)
  1031d6:	00 00 00 
  1031d9:	c7 04 24 d4 c6 10 00 	movl   $0x10c6d4,(%esp)
  1031e0:	e8 a0 82 00 00       	call   10b485 <cprintf>
  1031e5:	c9                   	leave  
  1031e6:	c3                   	ret    

001031e7 <trap_check_user>:
  1031e7:	55                   	push   %ebp
  1031e8:	89 e5                	mov    %esp,%ebp
  1031ea:	83 ec 28             	sub    $0x28,%esp
  1031ed:	8c 4d fe             	movw   %cs,0xfffffffe(%ebp)
  1031f0:	0f b7 45 fe          	movzwl 0xfffffffe(%ebp),%eax
  1031f4:	0f b7 c0             	movzwl %ax,%eax
  1031f7:	83 e0 03             	and    $0x3,%eax
  1031fa:	83 f8 03             	cmp    $0x3,%eax
  1031fd:	74 24                	je     103223 <trap_check_user+0x3c>
  1031ff:	c7 44 24 0c f4 c6 10 	movl   $0x10c6f4,0xc(%esp)
  103206:	00 
  103207:	c7 44 24 08 76 c2 10 	movl   $0x10c276,0x8(%esp)
  10320e:	00 
  10320f:	c7 44 24 04 b6 01 00 	movl   $0x1b6,0x4(%esp)
  103216:	00 
  103217:	c7 04 24 8f c5 10 00 	movl   $0x10c58f,(%esp)
  10321e:	e8 15 d7 ff ff       	call   100938 <debug_panic>
  103223:	c7 45 f8 00 e0 10 00 	movl   $0x10e000,0xfffffff8(%ebp)
  10322a:	8b 45 f8             	mov    0xfffffff8(%ebp),%eax
  10322d:	c7 80 a0 00 00 00 3a 	movl   $0x10313a,0xa0(%eax)
  103234:	31 10 00 
  103237:	8b 45 f8             	mov    0xfffffff8(%ebp),%eax
  10323a:	05 a4 00 00 00       	add    $0xa4,%eax
  10323f:	89 04 24             	mov    %eax,(%esp)
  103242:	e8 1b 00 00 00       	call   103262 <trap_check>
  103247:	8b 45 f8             	mov    0xfffffff8(%ebp),%eax
  10324a:	c7 80 a0 00 00 00 00 	movl   $0x0,0xa0(%eax)
  103251:	00 00 00 
  103254:	c7 04 24 09 c7 10 00 	movl   $0x10c709,(%esp)
  10325b:	e8 25 82 00 00       	call   10b485 <cprintf>
  103260:	c9                   	leave  
  103261:	c3                   	ret    

00103262 <trap_check>:
  103262:	55                   	push   %ebp
  103263:	89 e5                	mov    %esp,%ebp
  103265:	57                   	push   %edi
  103266:	56                   	push   %esi
  103267:	53                   	push   %ebx
  103268:	83 ec 3c             	sub    $0x3c,%esp
  10326b:	c7 45 ec ce fa ed fe 	movl   $0xfeedface,0xffffffec(%ebp)
  103272:	8b 55 08             	mov    0x8(%ebp),%edx
  103275:	8d 45 e4             	lea    0xffffffe4(%ebp),%eax
  103278:	89 02                	mov    %eax,(%edx)
  10327a:	c7 45 e4 88 32 10 00 	movl   $0x103288,0xffffffe4(%ebp)
  103281:	b8 00 00 00 00       	mov    $0x0,%eax
  103286:	f7 f0                	div    %eax

00103288 <after_div0>:
  103288:	8b 45 e8             	mov    0xffffffe8(%ebp),%eax
  10328b:	85 c0                	test   %eax,%eax
  10328d:	74 24                	je     1032b3 <after_div0+0x2b>
  10328f:	c7 44 24 0c 27 c7 10 	movl   $0x10c727,0xc(%esp)
  103296:	00 
  103297:	c7 44 24 08 76 c2 10 	movl   $0x10c276,0x8(%esp)
  10329e:	00 
  10329f:	c7 44 24 04 d9 01 00 	movl   $0x1d9,0x4(%esp)
  1032a6:	00 
  1032a7:	c7 04 24 8f c5 10 00 	movl   $0x10c58f,(%esp)
  1032ae:	e8 85 d6 ff ff       	call   100938 <debug_panic>
  1032b3:	8b 45 ec             	mov    0xffffffec(%ebp),%eax
  1032b6:	3d ce fa ed fe       	cmp    $0xfeedface,%eax
  1032bb:	74 24                	je     1032e1 <after_div0+0x59>
  1032bd:	c7 44 24 0c 3f c7 10 	movl   $0x10c73f,0xc(%esp)
  1032c4:	00 
  1032c5:	c7 44 24 08 76 c2 10 	movl   $0x10c276,0x8(%esp)
  1032cc:	00 
  1032cd:	c7 44 24 04 de 01 00 	movl   $0x1de,0x4(%esp)
  1032d4:	00 
  1032d5:	c7 04 24 8f c5 10 00 	movl   $0x10c58f,(%esp)
  1032dc:	e8 57 d6 ff ff       	call   100938 <debug_panic>
  1032e1:	c7 45 e4 e9 32 10 00 	movl   $0x1032e9,0xffffffe4(%ebp)
  1032e8:	cc                   	int3   

001032e9 <after_breakpoint>:
  1032e9:	8b 45 e8             	mov    0xffffffe8(%ebp),%eax
  1032ec:	83 f8 03             	cmp    $0x3,%eax
  1032ef:	74 24                	je     103315 <after_breakpoint+0x2c>
  1032f1:	c7 44 24 0c 54 c7 10 	movl   $0x10c754,0xc(%esp)
  1032f8:	00 
  1032f9:	c7 44 24 08 76 c2 10 	movl   $0x10c276,0x8(%esp)
  103300:	00 
  103301:	c7 44 24 04 e3 01 00 	movl   $0x1e3,0x4(%esp)
  103308:	00 
  103309:	c7 04 24 8f c5 10 00 	movl   $0x10c58f,(%esp)
  103310:	e8 23 d6 ff ff       	call   100938 <debug_panic>
  103315:	c7 45 e4 24 33 10 00 	movl   $0x103324,0xffffffe4(%ebp)
  10331c:	b8 00 00 00 70       	mov    $0x70000000,%eax
  103321:	01 c0                	add    %eax,%eax
  103323:	ce                   	into   

00103324 <after_overflow>:
  103324:	8b 45 e8             	mov    0xffffffe8(%ebp),%eax
  103327:	83 f8 04             	cmp    $0x4,%eax
  10332a:	74 24                	je     103350 <after_overflow+0x2c>
  10332c:	c7 44 24 0c 6b c7 10 	movl   $0x10c76b,0xc(%esp)
  103333:	00 
  103334:	c7 44 24 08 76 c2 10 	movl   $0x10c276,0x8(%esp)
  10333b:	00 
  10333c:	c7 44 24 04 e8 01 00 	movl   $0x1e8,0x4(%esp)
  103343:	00 
  103344:	c7 04 24 8f c5 10 00 	movl   $0x10c58f,(%esp)
  10334b:	e8 e8 d5 ff ff       	call   100938 <debug_panic>
  103350:	c7 45 e4 6d 33 10 00 	movl   $0x10336d,0xffffffe4(%ebp)
  103357:	c7 45 dc 01 00 00 00 	movl   $0x1,0xffffffdc(%ebp)
  10335e:	c7 45 e0 03 00 00 00 	movl   $0x3,0xffffffe0(%ebp)
  103365:	b8 00 00 00 00       	mov    $0x0,%eax
  10336a:	62 45 dc             	bound  %eax,0xffffffdc(%ebp)

0010336d <after_bound>:
  10336d:	8b 45 e8             	mov    0xffffffe8(%ebp),%eax
  103370:	83 f8 05             	cmp    $0x5,%eax
  103373:	74 24                	je     103399 <after_bound+0x2c>
  103375:	c7 44 24 0c 82 c7 10 	movl   $0x10c782,0xc(%esp)
  10337c:	00 
  10337d:	c7 44 24 08 76 c2 10 	movl   $0x10c276,0x8(%esp)
  103384:	00 
  103385:	c7 44 24 04 ee 01 00 	movl   $0x1ee,0x4(%esp)
  10338c:	00 
  10338d:	c7 04 24 8f c5 10 00 	movl   $0x10c58f,(%esp)
  103394:	e8 9f d5 ff ff       	call   100938 <debug_panic>
  103399:	c7 45 e4 a2 33 10 00 	movl   $0x1033a2,0xffffffe4(%ebp)
  1033a0:	0f 0b                	ud2a   

001033a2 <after_illegal>:
  1033a2:	8b 45 e8             	mov    0xffffffe8(%ebp),%eax
  1033a5:	83 f8 06             	cmp    $0x6,%eax
  1033a8:	74 24                	je     1033ce <after_illegal+0x2c>
  1033aa:	c7 44 24 0c 99 c7 10 	movl   $0x10c799,0xc(%esp)
  1033b1:	00 
  1033b2:	c7 44 24 08 76 c2 10 	movl   $0x10c276,0x8(%esp)
  1033b9:	00 
  1033ba:	c7 44 24 04 f3 01 00 	movl   $0x1f3,0x4(%esp)
  1033c1:	00 
  1033c2:	c7 04 24 8f c5 10 00 	movl   $0x10c58f,(%esp)
  1033c9:	e8 6a d5 ff ff       	call   100938 <debug_panic>
  1033ce:	c7 45 e4 dc 33 10 00 	movl   $0x1033dc,0xffffffe4(%ebp)
  1033d5:	b8 ff ff ff ff       	mov    $0xffffffff,%eax
  1033da:	8e e0                	movl   %eax,%fs

001033dc <after_gpfault>:
  1033dc:	8b 45 e8             	mov    0xffffffe8(%ebp),%eax
  1033df:	83 f8 0d             	cmp    $0xd,%eax
  1033e2:	74 24                	je     103408 <after_gpfault+0x2c>
  1033e4:	c7 44 24 0c b0 c7 10 	movl   $0x10c7b0,0xc(%esp)
  1033eb:	00 
  1033ec:	c7 44 24 08 76 c2 10 	movl   $0x10c276,0x8(%esp)
  1033f3:	00 
  1033f4:	c7 44 24 04 f8 01 00 	movl   $0x1f8,0x4(%esp)
  1033fb:	00 
  1033fc:	c7 04 24 8f c5 10 00 	movl   $0x10c58f,(%esp)
  103403:	e8 30 d5 ff ff       	call   100938 <debug_panic>
  103408:	8c 4d f2             	movw   %cs,0xfffffff2(%ebp)
  10340b:	0f b7 45 f2          	movzwl 0xfffffff2(%ebp),%eax
  10340f:	0f b7 c0             	movzwl %ax,%eax
  103412:	83 e0 03             	and    $0x3,%eax
  103415:	85 c0                	test   %eax,%eax
  103417:	74 3a                	je     103453 <after_priv+0x2c>
  103419:	c7 45 e4 27 34 10 00 	movl   $0x103427,0xffffffe4(%ebp)
  103420:	0f 01 1d 04 f0 10 00 	lidtl  0x10f004

00103427 <after_priv>:
  103427:	8b 45 e8             	mov    0xffffffe8(%ebp),%eax
  10342a:	83 f8 0d             	cmp    $0xd,%eax
  10342d:	74 24                	je     103453 <after_priv+0x2c>
  10342f:	c7 44 24 0c b0 c7 10 	movl   $0x10c7b0,0xc(%esp)
  103436:	00 
  103437:	c7 44 24 08 76 c2 10 	movl   $0x10c276,0x8(%esp)
  10343e:	00 
  10343f:	c7 44 24 04 fe 01 00 	movl   $0x1fe,0x4(%esp)
  103446:	00 
  103447:	c7 04 24 8f c5 10 00 	movl   $0x10c58f,(%esp)
  10344e:	e8 e5 d4 ff ff       	call   100938 <debug_panic>
  103453:	8b 45 ec             	mov    0xffffffec(%ebp),%eax
  103456:	3d ce fa ed fe       	cmp    $0xfeedface,%eax
  10345b:	74 24                	je     103481 <after_priv+0x5a>
  10345d:	c7 44 24 0c 3f c7 10 	movl   $0x10c73f,0xc(%esp)
  103464:	00 
  103465:	c7 44 24 08 76 c2 10 	movl   $0x10c276,0x8(%esp)
  10346c:	00 
  10346d:	c7 44 24 04 02 02 00 	movl   $0x202,0x4(%esp)
  103474:	00 
  103475:	c7 04 24 8f c5 10 00 	movl   $0x10c58f,(%esp)
  10347c:	e8 b7 d4 ff ff       	call   100938 <debug_panic>
  103481:	8b 45 08             	mov    0x8(%ebp),%eax
  103484:	c7 00 00 00 00 00    	movl   $0x0,(%eax)
  10348a:	83 c4 3c             	add    $0x3c,%esp
  10348d:	5b                   	pop    %ebx
  10348e:	5e                   	pop    %esi
  10348f:	5f                   	pop    %edi
  103490:	5d                   	pop    %ebp
  103491:	c3                   	ret    
  103492:	90                   	nop    
  103493:	90                   	nop    
  103494:	90                   	nop    
  103495:	90                   	nop    
  103496:	90                   	nop    
  103497:	90                   	nop    
  103498:	90                   	nop    
  103499:	90                   	nop    
  10349a:	90                   	nop    
  10349b:	90                   	nop    
  10349c:	90                   	nop    
  10349d:	90                   	nop    
  10349e:	90                   	nop    
  10349f:	90                   	nop    

001034a0 <Xdivide>:

.text

/* CPU traps */
TRAPHANDLER_NOEC(Xdivide, T_DIVIDE)
  1034a0:	6a 00                	push   $0x0
  1034a2:	6a 00                	push   $0x0
  1034a4:	e9 67 01 00 00       	jmp    103610 <_alltraps>
  1034a9:	90                   	nop    

001034aa <Xdebug>:
TRAPHANDLER_NOEC(Xdebug,  T_DEBUG)
  1034aa:	6a 00                	push   $0x0
  1034ac:	6a 01                	push   $0x1
  1034ae:	e9 5d 01 00 00       	jmp    103610 <_alltraps>
  1034b3:	90                   	nop    

001034b4 <Xnmi>:
TRAPHANDLER_NOEC(Xnmi,    T_NMI)
  1034b4:	6a 00                	push   $0x0
  1034b6:	6a 02                	push   $0x2
  1034b8:	e9 53 01 00 00       	jmp    103610 <_alltraps>
  1034bd:	90                   	nop    

001034be <Xbrkpt>:
TRAPHANDLER_NOEC(Xbrkpt,  T_BRKPT)
  1034be:	6a 00                	push   $0x0
  1034c0:	6a 03                	push   $0x3
  1034c2:	e9 49 01 00 00       	jmp    103610 <_alltraps>
  1034c7:	90                   	nop    

001034c8 <Xoflow>:
TRAPHANDLER_NOEC(Xoflow,  T_OFLOW)
  1034c8:	6a 00                	push   $0x0
  1034ca:	6a 04                	push   $0x4
  1034cc:	e9 3f 01 00 00       	jmp    103610 <_alltraps>
  1034d1:	90                   	nop    

001034d2 <Xbound>:
TRAPHANDLER_NOEC(Xbound,  T_BOUND)
  1034d2:	6a 00                	push   $0x0
  1034d4:	6a 05                	push   $0x5
  1034d6:	e9 35 01 00 00       	jmp    103610 <_alltraps>
  1034db:	90                   	nop    

001034dc <Xillop>:
TRAPHANDLER_NOEC(Xillop,  T_ILLOP)
  1034dc:	6a 00                	push   $0x0
  1034de:	6a 06                	push   $0x6
  1034e0:	e9 2b 01 00 00       	jmp    103610 <_alltraps>
  1034e5:	90                   	nop    

001034e6 <Xdevice>:
TRAPHANDLER_NOEC(Xdevice, T_DEVICE)
  1034e6:	6a 00                	push   $0x0
  1034e8:	6a 07                	push   $0x7
  1034ea:	e9 21 01 00 00       	jmp    103610 <_alltraps>
  1034ef:	90                   	nop    

001034f0 <Xdblflt>:
TRAPHANDLER     (Xdblflt, T_DBLFLT)
  1034f0:	6a 08                	push   $0x8
  1034f2:	e9 19 01 00 00       	jmp    103610 <_alltraps>
  1034f7:	90                   	nop    

001034f8 <Xtss>:
TRAPHANDLER     (Xtss,    T_TSS)
  1034f8:	6a 0a                	push   $0xa
  1034fa:	e9 11 01 00 00       	jmp    103610 <_alltraps>
  1034ff:	90                   	nop    

00103500 <Xsegnp>:
TRAPHANDLER     (Xsegnp,  T_SEGNP)
  103500:	6a 0b                	push   $0xb
  103502:	e9 09 01 00 00       	jmp    103610 <_alltraps>
  103507:	90                   	nop    

00103508 <Xstack>:
TRAPHANDLER     (Xstack,  T_STACK)
  103508:	6a 0c                	push   $0xc
  10350a:	e9 01 01 00 00       	jmp    103610 <_alltraps>
  10350f:	90                   	nop    

00103510 <Xgpflt>:
TRAPHANDLER     (Xgpflt,  T_GPFLT)
  103510:	6a 0d                	push   $0xd
  103512:	e9 f9 00 00 00       	jmp    103610 <_alltraps>
  103517:	90                   	nop    

00103518 <Xpgflt>:
TRAPHANDLER     (Xpgflt,  T_PGFLT)
  103518:	6a 0e                	push   $0xe
  10351a:	e9 f1 00 00 00       	jmp    103610 <_alltraps>
  10351f:	90                   	nop    

00103520 <Xfperr>:
TRAPHANDLER_NOEC(Xfperr,  T_FPERR)
  103520:	6a 00                	push   $0x0
  103522:	6a 10                	push   $0x10
  103524:	e9 e7 00 00 00       	jmp    103610 <_alltraps>
  103529:	90                   	nop    

0010352a <Xalign>:
TRAPHANDLER     (Xalign,  T_ALIGN)
  10352a:	6a 11                	push   $0x11
  10352c:	e9 df 00 00 00       	jmp    103610 <_alltraps>
  103531:	90                   	nop    

00103532 <Xmchk>:
TRAPHANDLER_NOEC(Xmchk,   T_MCHK)
  103532:	6a 00                	push   $0x0
  103534:	6a 12                	push   $0x12
  103536:	e9 d5 00 00 00       	jmp    103610 <_alltraps>
  10353b:	90                   	nop    

0010353c <Xsimd>:
TRAPHANDLER_NOEC(Xsimd,   T_SIMD)
  10353c:	6a 00                	push   $0x0
  10353e:	6a 13                	push   $0x13
  103540:	e9 cb 00 00 00       	jmp    103610 <_alltraps>
  103545:	90                   	nop    

00103546 <Xirq0>:


/* ISA device interrupts */
TRAPHANDLER_NOEC(Xirq0,   T_IRQ0+0)	// IRQ_PIT
  103546:	6a 00                	push   $0x0
  103548:	6a 20                	push   $0x20
  10354a:	e9 c1 00 00 00       	jmp    103610 <_alltraps>
  10354f:	90                   	nop    

00103550 <Xirq1>:
TRAPHANDLER_NOEC(Xirq1,   T_IRQ0+1)	// IRQ_KBD
  103550:	6a 00                	push   $0x0
  103552:	6a 21                	push   $0x21
  103554:	e9 b7 00 00 00       	jmp    103610 <_alltraps>
  103559:	90                   	nop    

0010355a <Xirq2>:
TRAPHANDLER_NOEC(Xirq2,   T_IRQ0+2)
  10355a:	6a 00                	push   $0x0
  10355c:	6a 22                	push   $0x22
  10355e:	e9 ad 00 00 00       	jmp    103610 <_alltraps>
  103563:	90                   	nop    

00103564 <Xirq3>:
TRAPHANDLER_NOEC(Xirq3,   T_IRQ0+3)
  103564:	6a 00                	push   $0x0
  103566:	6a 23                	push   $0x23
  103568:	e9 a3 00 00 00       	jmp    103610 <_alltraps>
  10356d:	90                   	nop    

0010356e <Xirq4>:
TRAPHANDLER_NOEC(Xirq4,   T_IRQ0+4)	// IRQ_SERIAL
  10356e:	6a 00                	push   $0x0
  103570:	6a 24                	push   $0x24
  103572:	e9 99 00 00 00       	jmp    103610 <_alltraps>
  103577:	90                   	nop    

00103578 <Xirq5>:
TRAPHANDLER_NOEC(Xirq5,   T_IRQ0+5)
  103578:	6a 00                	push   $0x0
  10357a:	6a 25                	push   $0x25
  10357c:	e9 8f 00 00 00       	jmp    103610 <_alltraps>
  103581:	90                   	nop    

00103582 <Xirq6>:
TRAPHANDLER_NOEC(Xirq6,   T_IRQ0+6)
  103582:	6a 00                	push   $0x0
  103584:	6a 26                	push   $0x26
  103586:	e9 85 00 00 00       	jmp    103610 <_alltraps>
  10358b:	90                   	nop    

0010358c <Xirq7>:
TRAPHANDLER_NOEC(Xirq7,   T_IRQ0+7)	// IRQ_SPURIOUS
  10358c:	6a 00                	push   $0x0
  10358e:	6a 27                	push   $0x27
  103590:	e9 7b 00 00 00       	jmp    103610 <_alltraps>
  103595:	90                   	nop    

00103596 <Xirq8>:
TRAPHANDLER_NOEC(Xirq8,   T_IRQ0+8)
  103596:	6a 00                	push   $0x0
  103598:	6a 28                	push   $0x28
  10359a:	e9 71 00 00 00       	jmp    103610 <_alltraps>
  10359f:	90                   	nop    

001035a0 <Xirq9>:
TRAPHANDLER_NOEC(Xirq9,   T_IRQ0+9)
  1035a0:	6a 00                	push   $0x0
  1035a2:	6a 29                	push   $0x29
  1035a4:	e9 67 00 00 00       	jmp    103610 <_alltraps>
  1035a9:	90                   	nop    

001035aa <Xirq10>:
TRAPHANDLER_NOEC(Xirq10,  T_IRQ0+10)
  1035aa:	6a 00                	push   $0x0
  1035ac:	6a 2a                	push   $0x2a
  1035ae:	e9 5d 00 00 00       	jmp    103610 <_alltraps>
  1035b3:	90                   	nop    

001035b4 <Xirq11>:
TRAPHANDLER_NOEC(Xirq11,  T_IRQ0+11)
  1035b4:	6a 00                	push   $0x0
  1035b6:	6a 2b                	push   $0x2b
  1035b8:	e9 53 00 00 00       	jmp    103610 <_alltraps>
  1035bd:	90                   	nop    

001035be <Xirq12>:
TRAPHANDLER_NOEC(Xirq12,  T_IRQ0+12)
  1035be:	6a 00                	push   $0x0
  1035c0:	6a 2c                	push   $0x2c
  1035c2:	e9 49 00 00 00       	jmp    103610 <_alltraps>
  1035c7:	90                   	nop    

001035c8 <Xirq13>:
TRAPHANDLER_NOEC(Xirq13,  T_IRQ0+13)
  1035c8:	6a 00                	push   $0x0
  1035ca:	6a 2d                	push   $0x2d
  1035cc:	e9 3f 00 00 00       	jmp    103610 <_alltraps>
  1035d1:	90                   	nop    

001035d2 <Xirq14>:
TRAPHANDLER_NOEC(Xirq14,  T_IRQ0+14)	// IRQ_IDE
  1035d2:	6a 00                	push   $0x0
  1035d4:	6a 2e                	push   $0x2e
  1035d6:	e9 35 00 00 00       	jmp    103610 <_alltraps>
  1035db:	90                   	nop    

001035dc <Xirq15>:
TRAPHANDLER_NOEC(Xirq15,  T_IRQ0+15)
  1035dc:	6a 00                	push   $0x0
  1035de:	6a 2f                	push   $0x2f
  1035e0:	e9 2b 00 00 00       	jmp    103610 <_alltraps>
  1035e5:	90                   	nop    

001035e6 <Xsyscall>:

TRAPHANDLER_NOEC(Xsyscall, T_SYSCALL)	// System call
  1035e6:	6a 00                	push   $0x0
  1035e8:	6a 30                	push   $0x30
  1035ea:	e9 21 00 00 00       	jmp    103610 <_alltraps>
  1035ef:	90                   	nop    

001035f0 <Xltimer>:
TRAPHANDLER_NOEC(Xltimer,  T_LTIMER)	// Local APIC timer
  1035f0:	6a 00                	push   $0x0
  1035f2:	6a 31                	push   $0x31
  1035f4:	e9 17 00 00 00       	jmp    103610 <_alltraps>
  1035f9:	90                   	nop    

001035fa <Xlerror>:
TRAPHANDLER_NOEC(Xlerror,  T_LERROR)	// Local APIC error
  1035fa:	6a 00                	push   $0x0
  1035fc:	6a 32                	push   $0x32
  1035fe:	e9 0d 00 00 00       	jmp    103610 <_alltraps>
  103603:	90                   	nop    

00103604 <Xdefault>:

/* default handler -- not for any specific trap */
TRAPHANDLER_NOEC(Xdefault, T_DEFAULT)
  103604:	6a 00                	push   $0x0
  103606:	68 f4 01 00 00       	push   $0x1f4
  10360b:	e9 00 00 00 00       	jmp    103610 <_alltraps>

00103610 <_alltraps>:



.globl	_alltraps
.type	_alltraps,@function
.p2align 4, 0x90		/* 16-byte alignment, nop filled */
_alltraps:
	pushl %ds		# build trap frame
  103610:	1e                   	push   %ds
	pushl %es
  103611:	06                   	push   %es
	pushl %fs
  103612:	0f a0                	push   %fs
	pushl %gs
  103614:	0f a8                	push   %gs
	pushal
  103616:	60                   	pusha  

	movl $CPU_GDT_KDATA,%eax # load kernel's data segment
  103617:	b8 10 00 00 00       	mov    $0x10,%eax
	movw %ax,%ds
  10361c:	8e d8                	movl   %eax,%ds
	movw %ax,%es
  10361e:	8e c0                	movl   %eax,%es

	xorl %ebp,%ebp		# don't let debug_trace() walk into user space
  103620:	31 ed                	xor    %ebp,%ebp

	pushl %esp		# pass pointer to this trapframe 
  103622:	54                   	push   %esp
	call trap		# and call trap (does not return)
  103623:	e8 7e f8 ff ff       	call   102ea6 <trap>

1:	jmp 1b			# should never get here; just spin...
  103628:	eb fe                	jmp    103628 <_alltraps+0x18>
  10362a:	8d b6 00 00 00 00    	lea    0x0(%esi),%esi

00103630 <trap_return>:



//
// Trap return code.
// C code in the kernel will call this function to return from a trap,
// providing the 
// Restore the CPU state from a given trapframe struct
// and return from the trap using the processor's 'iret' instruction.
// This function does not return to the caller,
// since the new CPU state this function loads
// replaces the caller's stack pointer and other registers.
//
.globl	trap_return
.type	trap_return,@function
.p2align 4, 0x90		/* 16-byte alignment, nop filled */
trap_return:
	movl	4(%esp),%esp	// reset stack pointer to point to trap frame
  103630:	8b 64 24 04          	mov    0x4(%esp),%esp
	popal			// restore general-purpose registers except esp
  103634:	61                   	popa   
	popl	%gs		// restore data segment registers
  103635:	0f a9                	pop    %gs
	popl	%fs
  103637:	0f a1                	pop    %fs
	popl	%es
  103639:	07                   	pop    %es
	popl	%ds
  10363a:	1f                   	pop    %ds
	addl	$8,%esp		// skip trapno and errcode
  10363b:	83 c4 08             	add    $0x8,%esp
	iret			// return from trap handler
  10363e:	cf                   	iret   
  10363f:	90                   	nop    

00103640 <sum>:


static uint8_t
sum(uint8_t * addr, int len)
{
  103640:	55                   	push   %ebp
  103641:	89 e5                	mov    %esp,%ebp
  103643:	83 ec 10             	sub    $0x10,%esp
	int i, sum;

	sum = 0;
  103646:	c7 45 fc 00 00 00 00 	movl   $0x0,0xfffffffc(%ebp)
	for (i = 0; i < len; i++)
  10364d:	c7 45 f8 00 00 00 00 	movl   $0x0,0xfffffff8(%ebp)
  103654:	eb 13                	jmp    103669 <sum+0x29>
		sum += addr[i];
  103656:	8b 45 f8             	mov    0xfffffff8(%ebp),%eax
  103659:	03 45 08             	add    0x8(%ebp),%eax
  10365c:	0f b6 00             	movzbl (%eax),%eax
  10365f:	0f b6 c0             	movzbl %al,%eax
  103662:	01 45 fc             	add    %eax,0xfffffffc(%ebp)
  103665:	83 45 f8 01          	addl   $0x1,0xfffffff8(%ebp)
  103669:	8b 45 f8             	mov    0xfffffff8(%ebp),%eax
  10366c:	3b 45 0c             	cmp    0xc(%ebp),%eax
  10366f:	7c e5                	jl     103656 <sum+0x16>
	return sum;
  103671:	8b 45 fc             	mov    0xfffffffc(%ebp),%eax
  103674:	0f b6 c0             	movzbl %al,%eax
}
  103677:	c9                   	leave  
  103678:	c3                   	ret    

00103679 <mpsearch1>:

//Look for an MP structure in the len bytes at addr.
static struct mp *
mpsearch1(uint8_t * addr, int len)
{
  103679:	55                   	push   %ebp
  10367a:	89 e5                	mov    %esp,%ebp
  10367c:	83 ec 28             	sub    $0x28,%esp
	uint8_t *e, *p;

	e = addr + len;
  10367f:	8b 45 0c             	mov    0xc(%ebp),%eax
  103682:	03 45 08             	add    0x8(%ebp),%eax
  103685:	89 45 f8             	mov    %eax,0xfffffff8(%ebp)
	for (p = addr; p < e; p += sizeof(struct mp))
  103688:	8b 45 08             	mov    0x8(%ebp),%eax
  10368b:	89 45 fc             	mov    %eax,0xfffffffc(%ebp)
  10368e:	eb 42                	jmp    1036d2 <mpsearch1+0x59>
		if (memcmp(p, "_MP_", 4) == 0 && sum(p, sizeof(struct mp)) == 0)
  103690:	c7 44 24 08 04 00 00 	movl   $0x4,0x8(%esp)
  103697:	00 
  103698:	c7 44 24 04 c8 c7 10 	movl   $0x10c7c8,0x4(%esp)
  10369f:	00 
  1036a0:	8b 45 fc             	mov    0xfffffffc(%ebp),%eax
  1036a3:	89 04 24             	mov    %eax,(%esp)
  1036a6:	e8 be 82 00 00       	call   10b969 <memcmp>
  1036ab:	85 c0                	test   %eax,%eax
  1036ad:	75 1f                	jne    1036ce <mpsearch1+0x55>
  1036af:	c7 44 24 04 10 00 00 	movl   $0x10,0x4(%esp)
  1036b6:	00 
  1036b7:	8b 45 fc             	mov    0xfffffffc(%ebp),%eax
  1036ba:	89 04 24             	mov    %eax,(%esp)
  1036bd:	e8 7e ff ff ff       	call   103640 <sum>
  1036c2:	84 c0                	test   %al,%al
  1036c4:	75 08                	jne    1036ce <mpsearch1+0x55>
			return (struct mp *) p;
  1036c6:	8b 45 fc             	mov    0xfffffffc(%ebp),%eax
  1036c9:	89 45 ec             	mov    %eax,0xffffffec(%ebp)
  1036cc:	eb 13                	jmp    1036e1 <mpsearch1+0x68>
  1036ce:	83 45 fc 10          	addl   $0x10,0xfffffffc(%ebp)
  1036d2:	8b 45 fc             	mov    0xfffffffc(%ebp),%eax
  1036d5:	3b 45 f8             	cmp    0xfffffff8(%ebp),%eax
  1036d8:	72 b6                	jb     103690 <mpsearch1+0x17>
	return 0;
  1036da:	c7 45 ec 00 00 00 00 	movl   $0x0,0xffffffec(%ebp)
  1036e1:	8b 45 ec             	mov    0xffffffec(%ebp),%eax
}
  1036e4:	c9                   	leave  
  1036e5:	c3                   	ret    

001036e6 <mpsearch>:

// Search for the MP Floating Pointer Structure, which according to the
// spec is in one of the following three locations:
// 1) in the first KB of the EBDA;
// 2) in the last KB of system base memory;
// 3) in the BIOS ROM between 0xE0000 and 0xFFFFF.
static struct mp *
mpsearch(void)
{
  1036e6:	55                   	push   %ebp
  1036e7:	89 e5                	mov    %esp,%ebp
  1036e9:	83 ec 28             	sub    $0x28,%esp
	uint8_t          *bda;
	uint32_t            p;
	struct mp      *mp;

	bda = (uint8_t *) 0x400;
  1036ec:	c7 45 f4 00 04 00 00 	movl   $0x400,0xfffffff4(%ebp)
	if ((p = ((bda[0x0F] << 8) | bda[0x0E]) << 4)) {
  1036f3:	8b 45 f4             	mov    0xfffffff4(%ebp),%eax
  1036f6:	83 c0 0f             	add    $0xf,%eax
  1036f9:	0f b6 00             	movzbl (%eax),%eax
  1036fc:	0f b6 c0             	movzbl %al,%eax
  1036ff:	89 c2                	mov    %eax,%edx
  103701:	c1 e2 08             	shl    $0x8,%edx
  103704:	8b 45 f4             	mov    0xfffffff4(%ebp),%eax
  103707:	83 c0 0e             	add    $0xe,%eax
  10370a:	0f b6 00             	movzbl (%eax),%eax
  10370d:	0f b6 c0             	movzbl %al,%eax
  103710:	09 d0                	or     %edx,%eax
  103712:	c1 e0 04             	shl    $0x4,%eax
  103715:	89 45 f8             	mov    %eax,0xfffffff8(%ebp)
  103718:	83 7d f8 00          	cmpl   $0x0,0xfffffff8(%ebp)
  10371c:	74 24                	je     103742 <mpsearch+0x5c>
		if ((mp = mpsearch1((uint8_t *) p, 1024)))
  10371e:	8b 45 f8             	mov    0xfffffff8(%ebp),%eax
  103721:	c7 44 24 04 00 04 00 	movl   $0x400,0x4(%esp)
  103728:	00 
  103729:	89 04 24             	mov    %eax,(%esp)
  10372c:	e8 48 ff ff ff       	call   103679 <mpsearch1>
  103731:	89 45 fc             	mov    %eax,0xfffffffc(%ebp)
  103734:	83 7d fc 00          	cmpl   $0x0,0xfffffffc(%ebp)
  103738:	74 56                	je     103790 <mpsearch+0xaa>
			return mp;
  10373a:	8b 45 fc             	mov    0xfffffffc(%ebp),%eax
  10373d:	89 45 ec             	mov    %eax,0xffffffec(%ebp)
  103740:	eb 65                	jmp    1037a7 <mpsearch+0xc1>
	} else {
		p = ((bda[0x14] << 8) | bda[0x13]) * 1024;
  103742:	8b 45 f4             	mov    0xfffffff4(%ebp),%eax
  103745:	83 c0 14             	add    $0x14,%eax
  103748:	0f b6 00             	movzbl (%eax),%eax
  10374b:	0f b6 c0             	movzbl %al,%eax
  10374e:	89 c2                	mov    %eax,%edx
  103750:	c1 e2 08             	shl    $0x8,%edx
  103753:	8b 45 f4             	mov    0xfffffff4(%ebp),%eax
  103756:	83 c0 13             	add    $0x13,%eax
  103759:	0f b6 00             	movzbl (%eax),%eax
  10375c:	0f b6 c0             	movzbl %al,%eax
  10375f:	09 d0                	or     %edx,%eax
  103761:	c1 e0 0a             	shl    $0xa,%eax
  103764:	89 45 f8             	mov    %eax,0xfffffff8(%ebp)
		if ((mp = mpsearch1((uint8_t *) p - 1024, 1024)))
  103767:	8b 45 f8             	mov    0xfffffff8(%ebp),%eax
  10376a:	2d 00 04 00 00       	sub    $0x400,%eax
  10376f:	c7 44 24 04 00 04 00 	movl   $0x400,0x4(%esp)
  103776:	00 
  103777:	89 04 24             	mov    %eax,(%esp)
  10377a:	e8 fa fe ff ff       	call   103679 <mpsearch1>
  10377f:	89 45 fc             	mov    %eax,0xfffffffc(%ebp)
  103782:	83 7d fc 00          	cmpl   $0x0,0xfffffffc(%ebp)
  103786:	74 08                	je     103790 <mpsearch+0xaa>
			return mp;
  103788:	8b 45 fc             	mov    0xfffffffc(%ebp),%eax
  10378b:	89 45 ec             	mov    %eax,0xffffffec(%ebp)
  10378e:	eb 17                	jmp    1037a7 <mpsearch+0xc1>
	}
	return mpsearch1((uint8_t *) 0xF0000, 0x10000);
  103790:	c7 44 24 04 00 00 01 	movl   $0x10000,0x4(%esp)
  103797:	00 
  103798:	c7 04 24 00 00 0f 00 	movl   $0xf0000,(%esp)
  10379f:	e8 d5 fe ff ff       	call   103679 <mpsearch1>
  1037a4:	89 45 ec             	mov    %eax,0xffffffec(%ebp)
  1037a7:	8b 45 ec             	mov    0xffffffec(%ebp),%eax
}
  1037aa:	c9                   	leave  
  1037ab:	c3                   	ret    

001037ac <mpconfig>:

// Search for an MP configuration table.  For now,
// don 't accept the default configurations (physaddr == 0).
// Check for correct signature, calculate the checksum and,
// if correct, check the version.
// To do: check extended table checksum.
static struct mpconf *
mpconfig(struct mp **pmp) {
  1037ac:	55                   	push   %ebp
  1037ad:	89 e5                	mov    %esp,%ebp
  1037af:	83 ec 28             	sub    $0x28,%esp
	struct mpconf  *conf;
	struct mp      *mp;

	if ((mp = mpsearch()) == 0 || mp->physaddr == 0)
  1037b2:	e8 2f ff ff ff       	call   1036e6 <mpsearch>
  1037b7:	89 45 fc             	mov    %eax,0xfffffffc(%ebp)
  1037ba:	83 7d fc 00          	cmpl   $0x0,0xfffffffc(%ebp)
  1037be:	74 0a                	je     1037ca <mpconfig+0x1e>
  1037c0:	8b 45 fc             	mov    0xfffffffc(%ebp),%eax
  1037c3:	8b 40 04             	mov    0x4(%eax),%eax
  1037c6:	85 c0                	test   %eax,%eax
  1037c8:	75 0c                	jne    1037d6 <mpconfig+0x2a>
		return 0;
  1037ca:	c7 45 ec 00 00 00 00 	movl   $0x0,0xffffffec(%ebp)
  1037d1:	e9 84 00 00 00       	jmp    10385a <mpconfig+0xae>
	conf = (struct mpconf *) mp->physaddr;
  1037d6:	8b 45 fc             	mov    0xfffffffc(%ebp),%eax
  1037d9:	8b 40 04             	mov    0x4(%eax),%eax
  1037dc:	89 45 f8             	mov    %eax,0xfffffff8(%ebp)
	if (memcmp(conf, "PCMP", 4) != 0)
  1037df:	c7 44 24 08 04 00 00 	movl   $0x4,0x8(%esp)
  1037e6:	00 
  1037e7:	c7 44 24 04 cd c7 10 	movl   $0x10c7cd,0x4(%esp)
  1037ee:	00 
  1037ef:	8b 45 f8             	mov    0xfffffff8(%ebp),%eax
  1037f2:	89 04 24             	mov    %eax,(%esp)
  1037f5:	e8 6f 81 00 00       	call   10b969 <memcmp>
  1037fa:	85 c0                	test   %eax,%eax
  1037fc:	74 09                	je     103807 <mpconfig+0x5b>
		return 0;
  1037fe:	c7 45 ec 00 00 00 00 	movl   $0x0,0xffffffec(%ebp)
  103805:	eb 53                	jmp    10385a <mpconfig+0xae>
	if (conf->version != 1 && conf->version != 4)
  103807:	8b 45 f8             	mov    0xfffffff8(%ebp),%eax
  10380a:	0f b6 40 06          	movzbl 0x6(%eax),%eax
  10380e:	3c 01                	cmp    $0x1,%al
  103810:	74 14                	je     103826 <mpconfig+0x7a>
  103812:	8b 45 f8             	mov    0xfffffff8(%ebp),%eax
  103815:	0f b6 40 06          	movzbl 0x6(%eax),%eax
  103819:	3c 04                	cmp    $0x4,%al
  10381b:	74 09                	je     103826 <mpconfig+0x7a>
		return 0;
  10381d:	c7 45 ec 00 00 00 00 	movl   $0x0,0xffffffec(%ebp)
  103824:	eb 34                	jmp    10385a <mpconfig+0xae>
	if (sum((uint8_t *) conf, conf->length) != 0)
  103826:	8b 45 f8             	mov    0xfffffff8(%ebp),%eax
  103829:	0f b7 40 04          	movzwl 0x4(%eax),%eax
  10382d:	0f b7 c0             	movzwl %ax,%eax
  103830:	8b 55 f8             	mov    0xfffffff8(%ebp),%edx
  103833:	89 44 24 04          	mov    %eax,0x4(%esp)
  103837:	89 14 24             	mov    %edx,(%esp)
  10383a:	e8 01 fe ff ff       	call   103640 <sum>
  10383f:	84 c0                	test   %al,%al
  103841:	74 09                	je     10384c <mpconfig+0xa0>
		return 0;
  103843:	c7 45 ec 00 00 00 00 	movl   $0x0,0xffffffec(%ebp)
  10384a:	eb 0e                	jmp    10385a <mpconfig+0xae>
       *pmp = mp;
  10384c:	8b 55 08             	mov    0x8(%ebp),%edx
  10384f:	8b 45 fc             	mov    0xfffffffc(%ebp),%eax
  103852:	89 02                	mov    %eax,(%edx)
	return conf;
  103854:	8b 45 f8             	mov    0xfffffff8(%ebp),%eax
  103857:	89 45 ec             	mov    %eax,0xffffffec(%ebp)
  10385a:	8b 45 ec             	mov    0xffffffec(%ebp),%eax
}
  10385d:	c9                   	leave  
  10385e:	c3                   	ret    

0010385f <mp_init>:

void
mp_init(void)
{
  10385f:	55                   	push   %ebp
  103860:	89 e5                	mov    %esp,%ebp
  103862:	83 ec 58             	sub    $0x58,%esp
	uint8_t          *p, *e;
	struct mp      *mp;
	struct mpconf  *conf;
	struct mpproc  *proc;
	struct mpioapic *mpio;

	if (!cpu_onboot())	// only do once, on the boot CPU
  103865:	e8 88 01 00 00       	call   1039f2 <cpu_onboot>
  10386a:	85 c0                	test   %eax,%eax
  10386c:	0f 84 7e 01 00 00    	je     1039f0 <mp_init+0x191>
		return;

	if ((conf = mpconfig(&mp)) == 0)
  103872:	8d 45 cc             	lea    0xffffffcc(%ebp),%eax
  103875:	89 04 24             	mov    %eax,(%esp)
  103878:	e8 2f ff ff ff       	call   1037ac <mpconfig>
  10387d:	89 45 d8             	mov    %eax,0xffffffd8(%ebp)
  103880:	83 7d d8 00          	cmpl   $0x0,0xffffffd8(%ebp)
  103884:	0f 84 66 01 00 00    	je     1039f0 <mp_init+0x191>
		return; // Not a multiprocessor machine - just use boot CPU.

	ismp = 1;
  10388a:	c7 05 e8 ed 17 00 01 	movl   $0x1,0x17ede8
  103891:	00 00 00 
	lapic = (uint32_t *) conf->lapicaddr;
  103894:	8b 45 d8             	mov    0xffffffd8(%ebp),%eax
  103897:	8b 40 24             	mov    0x24(%eax),%eax
  10389a:	a3 04 20 18 00       	mov    %eax,0x182004
	for (p = (uint8_t *) (conf + 1), e = (uint8_t *) conf + conf->length;
  10389f:	8b 45 d8             	mov    0xffffffd8(%ebp),%eax
  1038a2:	83 c0 2c             	add    $0x2c,%eax
  1038a5:	89 45 d0             	mov    %eax,0xffffffd0(%ebp)
  1038a8:	8b 45 d8             	mov    0xffffffd8(%ebp),%eax
  1038ab:	0f b7 40 04          	movzwl 0x4(%eax),%eax
  1038af:	0f b7 c0             	movzwl %ax,%eax
  1038b2:	89 c2                	mov    %eax,%edx
  1038b4:	8b 45 d8             	mov    0xffffffd8(%ebp),%eax
  1038b7:	8d 04 02             	lea    (%edx,%eax,1),%eax
  1038ba:	89 45 d4             	mov    %eax,0xffffffd4(%ebp)
			p < e;) {
  1038bd:	e9 da 00 00 00       	jmp    10399c <mp_init+0x13d>
		switch (*p) {
  1038c2:	8b 45 d0             	mov    0xffffffd0(%ebp),%eax
  1038c5:	0f b6 00             	movzbl (%eax),%eax
  1038c8:	0f b6 c0             	movzbl %al,%eax
  1038cb:	89 45 b8             	mov    %eax,0xffffffb8(%ebp)
  1038ce:	83 7d b8 04          	cmpl   $0x4,0xffffffb8(%ebp)
  1038d2:	0f 87 9b 00 00 00    	ja     103973 <mp_init+0x114>
  1038d8:	8b 55 b8             	mov    0xffffffb8(%ebp),%edx
  1038db:	8b 04 95 00 c8 10 00 	mov    0x10c800(,%edx,4),%eax
  1038e2:	ff e0                	jmp    *%eax
		case MPPROC:
			proc = (struct mpproc *) p;
  1038e4:	8b 45 d0             	mov    0xffffffd0(%ebp),%eax
  1038e7:	89 45 dc             	mov    %eax,0xffffffdc(%ebp)
			p += sizeof(struct mpproc);
  1038ea:	83 45 d0 14          	addl   $0x14,0xffffffd0(%ebp)
			if (!(proc->flags & MPENAB))
  1038ee:	8b 45 dc             	mov    0xffffffdc(%ebp),%eax
  1038f1:	0f b6 40 03          	movzbl 0x3(%eax),%eax
  1038f5:	0f b6 c0             	movzbl %al,%eax
  1038f8:	83 e0 01             	and    $0x1,%eax
  1038fb:	85 c0                	test   %eax,%eax
  1038fd:	0f 84 99 00 00 00    	je     10399c <mp_init+0x13d>
				continue;	// processor disabled

			// Get a cpu struct and kernel stack for this CPU.
			cpu *c = (proc->flags & MPBOOT)
					? &cpu_boot : cpu_alloc();
  103903:	8b 45 dc             	mov    0xffffffdc(%ebp),%eax
  103906:	0f b6 40 03          	movzbl 0x3(%eax),%eax
  10390a:	0f b6 c0             	movzbl %al,%eax
  10390d:	83 e0 02             	and    $0x2,%eax
  103910:	85 c0                	test   %eax,%eax
  103912:	75 0a                	jne    10391e <mp_init+0xbf>
  103914:	e8 15 de ff ff       	call   10172e <cpu_alloc>
  103919:	89 45 bc             	mov    %eax,0xffffffbc(%ebp)
  10391c:	eb 07                	jmp    103925 <mp_init+0xc6>
  10391e:	c7 45 bc 00 e0 10 00 	movl   $0x10e000,0xffffffbc(%ebp)
  103925:	8b 45 bc             	mov    0xffffffbc(%ebp),%eax
  103928:	89 45 e4             	mov    %eax,0xffffffe4(%ebp)
			c->id = proc->apicid;
  10392b:	8b 45 dc             	mov    0xffffffdc(%ebp),%eax
  10392e:	0f b6 50 01          	movzbl 0x1(%eax),%edx
  103932:	8b 45 e4             	mov    0xffffffe4(%ebp),%eax
  103935:	88 90 ac 00 00 00    	mov    %dl,0xac(%eax)
			ncpu++;
  10393b:	a1 ec ed 17 00       	mov    0x17edec,%eax
  103940:	83 c0 01             	add    $0x1,%eax
  103943:	a3 ec ed 17 00       	mov    %eax,0x17edec
			continue;
  103948:	eb 52                	jmp    10399c <mp_init+0x13d>
		case MPIOAPIC:
			mpio = (struct mpioapic *) p;
  10394a:	8b 45 d0             	mov    0xffffffd0(%ebp),%eax
  10394d:	89 45 e0             	mov    %eax,0xffffffe0(%ebp)
			p += sizeof(struct mpioapic);
  103950:	83 45 d0 08          	addl   $0x8,0xffffffd0(%ebp)
			ioapicid = mpio->apicno;
  103954:	8b 45 e0             	mov    0xffffffe0(%ebp),%eax
  103957:	0f b6 40 01          	movzbl 0x1(%eax),%eax
  10395b:	a2 e0 ed 17 00       	mov    %al,0x17ede0
			ioapic = (struct ioapic *) mpio->addr;
  103960:	8b 45 e0             	mov    0xffffffe0(%ebp),%eax
  103963:	8b 40 04             	mov    0x4(%eax),%eax
  103966:	a3 e4 ed 17 00       	mov    %eax,0x17ede4
			continue;
  10396b:	eb 2f                	jmp    10399c <mp_init+0x13d>
		case MPBUS:
		case MPIOINTR:
		case MPLINTR:
			p += 8;
  10396d:	83 45 d0 08          	addl   $0x8,0xffffffd0(%ebp)
			continue;
  103971:	eb 29                	jmp    10399c <mp_init+0x13d>
		default:
			panic("mpinit: unknown config type %x\n", *p);
  103973:	8b 45 d0             	mov    0xffffffd0(%ebp),%eax
  103976:	0f b6 00             	movzbl (%eax),%eax
  103979:	0f b6 c0             	movzbl %al,%eax
  10397c:	89 44 24 0c          	mov    %eax,0xc(%esp)
  103980:	c7 44 24 08 d4 c7 10 	movl   $0x10c7d4,0x8(%esp)
  103987:	00 
  103988:	c7 44 24 04 92 00 00 	movl   $0x92,0x4(%esp)
  10398f:	00 
  103990:	c7 04 24 f4 c7 10 00 	movl   $0x10c7f4,(%esp)
  103997:	e8 9c cf ff ff       	call   100938 <debug_panic>
  10399c:	8b 45 d0             	mov    0xffffffd0(%ebp),%eax
  10399f:	3b 45 d4             	cmp    0xffffffd4(%ebp),%eax
  1039a2:	0f 82 1a ff ff ff    	jb     1038c2 <mp_init+0x63>
		}
	}
	if (mp->imcrp) {
  1039a8:	8b 45 cc             	mov    0xffffffcc(%ebp),%eax
  1039ab:	0f b6 40 0c          	movzbl 0xc(%eax),%eax
  1039af:	84 c0                	test   %al,%al
  1039b1:	74 3d                	je     1039f0 <mp_init+0x191>
  1039b3:	c7 45 ec 22 00 00 00 	movl   $0x22,0xffffffec(%ebp)
  1039ba:	c6 45 eb 70          	movb   $0x70,0xffffffeb(%ebp)

static gcc_inline void
outb(int port, uint8_t data)
{
	__asm __volatile("outb %0,%w1" : : "a" (data), "d" (port));
  1039be:	0f b6 45 eb          	movzbl 0xffffffeb(%ebp),%eax
  1039c2:	8b 55 ec             	mov    0xffffffec(%ebp),%edx
  1039c5:	ee                   	out    %al,(%dx)
  1039c6:	c7 45 f4 23 00 00 00 	movl   $0x23,0xfffffff4(%ebp)
  1039cd:	8b 55 f4             	mov    0xfffffff4(%ebp),%edx
  1039d0:	ec                   	in     (%dx),%al
  1039d1:	88 45 f3             	mov    %al,0xfffffff3(%ebp)
  1039d4:	0f b6 45 f3          	movzbl 0xfffffff3(%ebp),%eax
		// Bochs doesn 't support IMCR, so this doesn' t run on Bochs.
		// But it would on real hardware.
		outb(0x22, 0x70);		// Select IMCR
		outb(0x23, inb(0x23) | 1);	// Mask external interrupts.
  1039d8:	83 c8 01             	or     $0x1,%eax
  1039db:	0f b6 c0             	movzbl %al,%eax
  1039de:	c7 45 fc 23 00 00 00 	movl   $0x23,0xfffffffc(%ebp)
  1039e5:	88 45 fb             	mov    %al,0xfffffffb(%ebp)

static gcc_inline void
outb(int port, uint8_t data)
{
	__asm __volatile("outb %0,%w1" : : "a" (data), "d" (port));
  1039e8:	0f b6 45 fb          	movzbl 0xfffffffb(%ebp),%eax
  1039ec:	8b 55 fc             	mov    0xfffffffc(%ebp),%edx
  1039ef:	ee                   	out    %al,(%dx)
	}
}
  1039f0:	c9                   	leave  
  1039f1:	c3                   	ret    

001039f2 <cpu_onboot>:
}

// Returns true if we're running on the bootstrap CPU.
static inline int
cpu_onboot() {
  1039f2:	55                   	push   %ebp
  1039f3:	89 e5                	mov    %esp,%ebp
  1039f5:	83 ec 08             	sub    $0x8,%esp
	return cpu_cur() == &cpu_boot;
  1039f8:	e8 0d 00 00 00       	call   103a0a <cpu_cur>
  1039fd:	3d 00 e0 10 00       	cmp    $0x10e000,%eax
  103a02:	0f 94 c0             	sete   %al
  103a05:	0f b6 c0             	movzbl %al,%eax
}
  103a08:	c9                   	leave  
  103a09:	c3                   	ret    

00103a0a <cpu_cur>:
  103a0a:	55                   	push   %ebp
  103a0b:	89 e5                	mov    %esp,%ebp
  103a0d:	83 ec 28             	sub    $0x28,%esp
static gcc_inline uint32_t
read_esp(void)
{
        uint32_t esp;
        __asm __volatile("movl %%esp,%0" : "=rm" (esp));
  103a10:	89 65 fc             	mov    %esp,0xfffffffc(%ebp)
        return esp;
  103a13:	8b 45 fc             	mov    0xfffffffc(%ebp),%eax
// Find the CPU struct representing the current CPU.
// It always resides at the bottom of the page containing the CPU's stack.
static inline cpu *
cpu_cur() {
	cpu *c = (cpu*)ROUNDDOWN(read_esp(), PAGESIZE);
  103a16:	89 45 f8             	mov    %eax,0xfffffff8(%ebp)
  103a19:	8b 45 f8             	mov    0xfffffff8(%ebp),%eax
  103a1c:	25 00 f0 ff ff       	and    $0xfffff000,%eax
  103a21:	89 45 f4             	mov    %eax,0xfffffff4(%ebp)
	assert(c->magic == CPU_MAGIC);
  103a24:	8b 45 f4             	mov    0xfffffff4(%ebp),%eax
  103a27:	8b 80 b8 00 00 00    	mov    0xb8(%eax),%eax
  103a2d:	3d 32 54 76 98       	cmp    $0x98765432,%eax
  103a32:	74 24                	je     103a58 <cpu_cur+0x4e>
  103a34:	c7 44 24 0c 14 c8 10 	movl   $0x10c814,0xc(%esp)
  103a3b:	00 
  103a3c:	c7 44 24 08 2a c8 10 	movl   $0x10c82a,0x8(%esp)
  103a43:	00 
  103a44:	c7 44 24 04 5c 00 00 	movl   $0x5c,0x4(%esp)
  103a4b:	00 
  103a4c:	c7 04 24 3f c8 10 00 	movl   $0x10c83f,(%esp)
  103a53:	e8 e0 ce ff ff       	call   100938 <debug_panic>
	return c;
  103a58:	8b 45 f4             	mov    0xfffffff4(%ebp),%eax
}
  103a5b:	c9                   	leave  
  103a5c:	c3                   	ret    
  103a5d:	90                   	nop    
  103a5e:	90                   	nop    
  103a5f:	90                   	nop    

00103a60 <spinlock_init_>:


void
spinlock_init_(struct spinlock *lk, const char *file, int line)
{
  103a60:	55                   	push   %ebp
  103a61:	89 e5                	mov    %esp,%ebp
  lk->file = file;
  103a63:	8b 55 08             	mov    0x8(%ebp),%edx
  103a66:	8b 45 0c             	mov    0xc(%ebp),%eax
  103a69:	89 42 04             	mov    %eax,0x4(%edx)
  lk->line = line;
  103a6c:	8b 55 08             	mov    0x8(%ebp),%edx
  103a6f:	8b 45 10             	mov    0x10(%ebp),%eax
  103a72:	89 42 08             	mov    %eax,0x8(%edx)
  lk->locked = 0;
  103a75:	8b 45 08             	mov    0x8(%ebp),%eax
  103a78:	c7 00 00 00 00 00    	movl   $0x0,(%eax)
  lk->cpu = NULL;
  103a7e:	8b 45 08             	mov    0x8(%ebp),%eax
  103a81:	c7 40 0c 00 00 00 00 	movl   $0x0,0xc(%eax)
}
  103a88:	5d                   	pop    %ebp
  103a89:	c3                   	ret    

00103a8a <spinlock_acquire>:

// Acquire the lock.
// Loops (spins) until the lock is acquired.
// Holding a lock for a long time may cause
// other CPUs to waste time spinning to acquire it.
void
spinlock_acquire(struct spinlock *lk)
{
  103a8a:	55                   	push   %ebp
  103a8b:	89 e5                	mov    %esp,%ebp
  103a8d:	83 ec 28             	sub    $0x28,%esp
  if (spinlock_holding(lk))
  103a90:	8b 45 08             	mov    0x8(%ebp),%eax
  103a93:	89 04 24             	mov    %eax,(%esp)
  103a96:	e8 44 01 00 00       	call   103bdf <spinlock_holding>
  103a9b:	85 c0                	test   %eax,%eax
  103a9d:	74 21                	je     103ac0 <spinlock_acquire+0x36>
    panic("Attempt to acquire lock already held by this cpu");
  103a9f:	c7 44 24 08 4c c8 10 	movl   $0x10c84c,0x8(%esp)
  103aa6:	00 
  103aa7:	c7 44 24 04 24 00 00 	movl   $0x24,0x4(%esp)
  103aae:	00 
  103aaf:	c7 04 24 7d c8 10 00 	movl   $0x10c87d,(%esp)
  103ab6:	e8 7d ce ff ff       	call   100938 <debug_panic>
  while(xchg(&lk->locked, 1) != 0) {
    pause(); // buisy wait
  103abb:	e8 3e 00 00 00       	call   103afe <pause>
  103ac0:	8b 45 08             	mov    0x8(%ebp),%eax
  103ac3:	c7 44 24 04 01 00 00 	movl   $0x1,0x4(%esp)
  103aca:	00 
  103acb:	89 04 24             	mov    %eax,(%esp)
  103ace:	e8 32 00 00 00       	call   103b05 <xchg>
  103ad3:	85 c0                	test   %eax,%eax
  103ad5:	75 e4                	jne    103abb <spinlock_acquire+0x31>
  }
  lk->cpu = cpu_cur();
  103ad7:	e8 56 00 00 00       	call   103b32 <cpu_cur>
  103adc:	89 c2                	mov    %eax,%edx
  103ade:	8b 45 08             	mov    0x8(%ebp),%eax
  103ae1:	89 50 0c             	mov    %edx,0xc(%eax)
  debug_trace(read_ebp(), lk->eips);
  103ae4:	8b 55 08             	mov    0x8(%ebp),%edx
  103ae7:	83 c2 10             	add    $0x10,%edx
static gcc_inline uint32_t
read_ebp(void)
{
        uint32_t ebp;
        __asm __volatile("movl %%ebp,%0" : "=rm" (ebp));
  103aea:	89 6d fc             	mov    %ebp,0xfffffffc(%ebp)
        return ebp;
  103aed:	8b 45 fc             	mov    0xfffffffc(%ebp),%eax
  103af0:	89 54 24 04          	mov    %edx,0x4(%esp)
  103af4:	89 04 24             	mov    %eax,(%esp)
  103af7:	e8 43 cf ff ff       	call   100a3f <debug_trace>
}
  103afc:	c9                   	leave  
  103afd:	c3                   	ret    

00103afe <pause>:
}

static inline void
pause(void)
{
  103afe:	55                   	push   %ebp
  103aff:	89 e5                	mov    %esp,%ebp
	asm volatile("pause" : : : "memory");
  103b01:	f3 90                	pause  
}
  103b03:	5d                   	pop    %ebp
  103b04:	c3                   	ret    

00103b05 <xchg>:
  103b05:	55                   	push   %ebp
  103b06:	89 e5                	mov    %esp,%ebp
  103b08:	53                   	push   %ebx
  103b09:	83 ec 14             	sub    $0x14,%esp
  103b0c:	8b 4d 08             	mov    0x8(%ebp),%ecx
  103b0f:	8b 55 0c             	mov    0xc(%ebp),%edx
  103b12:	8b 45 08             	mov    0x8(%ebp),%eax
  103b15:	89 45 e8             	mov    %eax,0xffffffe8(%ebp)
  103b18:	89 d0                	mov    %edx,%eax
  103b1a:	8b 5d e8             	mov    0xffffffe8(%ebp),%ebx
  103b1d:	f0 87 01             	lock xchg %eax,(%ecx)
  103b20:	89 45 e8             	mov    %eax,0xffffffe8(%ebp)
  103b23:	8b 45 e8             	mov    0xffffffe8(%ebp),%eax
  103b26:	89 45 f8             	mov    %eax,0xfffffff8(%ebp)
  103b29:	8b 45 f8             	mov    0xfffffff8(%ebp),%eax
  103b2c:	83 c4 14             	add    $0x14,%esp
  103b2f:	5b                   	pop    %ebx
  103b30:	5d                   	pop    %ebp
  103b31:	c3                   	ret    

00103b32 <cpu_cur>:

// Find the CPU struct representing the current CPU.
// It always resides at the bottom of the page containing the CPU's stack.
static inline cpu *
cpu_cur() {
  103b32:	55                   	push   %ebp
  103b33:	89 e5                	mov    %esp,%ebp
  103b35:	83 ec 28             	sub    $0x28,%esp
static gcc_inline uint32_t
read_esp(void)
{
        uint32_t esp;
        __asm __volatile("movl %%esp,%0" : "=rm" (esp));
  103b38:	89 65 fc             	mov    %esp,0xfffffffc(%ebp)
        return esp;
  103b3b:	8b 45 fc             	mov    0xfffffffc(%ebp),%eax
// Find the CPU struct representing the current CPU.
// It always resides at the bottom of the page containing the CPU's stack.
static inline cpu *
cpu_cur() {
	cpu *c = (cpu*)ROUNDDOWN(read_esp(), PAGESIZE);
  103b3e:	89 45 f8             	mov    %eax,0xfffffff8(%ebp)
  103b41:	8b 45 f8             	mov    0xfffffff8(%ebp),%eax
  103b44:	25 00 f0 ff ff       	and    $0xfffff000,%eax
  103b49:	89 45 f4             	mov    %eax,0xfffffff4(%ebp)
	assert(c->magic == CPU_MAGIC);
  103b4c:	8b 45 f4             	mov    0xfffffff4(%ebp),%eax
  103b4f:	8b 80 b8 00 00 00    	mov    0xb8(%eax),%eax
  103b55:	3d 32 54 76 98       	cmp    $0x98765432,%eax
  103b5a:	74 24                	je     103b80 <cpu_cur+0x4e>
  103b5c:	c7 44 24 0c 8d c8 10 	movl   $0x10c88d,0xc(%esp)
  103b63:	00 
  103b64:	c7 44 24 08 a3 c8 10 	movl   $0x10c8a3,0x8(%esp)
  103b6b:	00 
  103b6c:	c7 44 24 04 5c 00 00 	movl   $0x5c,0x4(%esp)
  103b73:	00 
  103b74:	c7 04 24 b8 c8 10 00 	movl   $0x10c8b8,(%esp)
  103b7b:	e8 b8 cd ff ff       	call   100938 <debug_panic>
	return c;
  103b80:	8b 45 f4             	mov    0xfffffff4(%ebp),%eax
}
  103b83:	c9                   	leave  
  103b84:	c3                   	ret    

00103b85 <spinlock_release>:

// Release the lock.
void
spinlock_release(struct spinlock *lk)
{
  103b85:	55                   	push   %ebp
  103b86:	89 e5                	mov    %esp,%ebp
  103b88:	83 ec 18             	sub    $0x18,%esp
  if (!spinlock_holding(lk))
  103b8b:	8b 45 08             	mov    0x8(%ebp),%eax
  103b8e:	89 04 24             	mov    %eax,(%esp)
  103b91:	e8 49 00 00 00       	call   103bdf <spinlock_holding>
  103b96:	85 c0                	test   %eax,%eax
  103b98:	75 1c                	jne    103bb6 <spinlock_release+0x31>
    panic("Attempt to release lock not held by this cpu");
  103b9a:	c7 44 24 08 c8 c8 10 	movl   $0x10c8c8,0x8(%esp)
  103ba1:	00 
  103ba2:	c7 44 24 04 31 00 00 	movl   $0x31,0x4(%esp)
  103ba9:	00 
  103baa:	c7 04 24 7d c8 10 00 	movl   $0x10c87d,(%esp)
  103bb1:	e8 82 cd ff ff       	call   100938 <debug_panic>
  lk->eips[0] = 0;
  103bb6:	8b 45 08             	mov    0x8(%ebp),%eax
  103bb9:	c7 40 10 00 00 00 00 	movl   $0x0,0x10(%eax)
  lk->cpu = 0;
  103bc0:	8b 45 08             	mov    0x8(%ebp),%eax
  103bc3:	c7 40 0c 00 00 00 00 	movl   $0x0,0xc(%eax)
  xchg(&lk->locked, 0);
  103bca:	8b 45 08             	mov    0x8(%ebp),%eax
  103bcd:	c7 44 24 04 00 00 00 	movl   $0x0,0x4(%esp)
  103bd4:	00 
  103bd5:	89 04 24             	mov    %eax,(%esp)
  103bd8:	e8 28 ff ff ff       	call   103b05 <xchg>
}
  103bdd:	c9                   	leave  
  103bde:	c3                   	ret    

00103bdf <spinlock_holding>:

// Check whether this cpu is holding the lock.
int
spinlock_holding(spinlock *lk)
{
  103bdf:	55                   	push   %ebp
  103be0:	89 e5                	mov    %esp,%ebp
  103be2:	53                   	push   %ebx
  103be3:	83 ec 04             	sub    $0x4,%esp
  return (lk->locked) && (lk->cpu == cpu_cur());
  103be6:	8b 45 08             	mov    0x8(%ebp),%eax
  103be9:	8b 00                	mov    (%eax),%eax
  103beb:	85 c0                	test   %eax,%eax
  103bed:	74 18                	je     103c07 <spinlock_holding+0x28>
  103bef:	8b 45 08             	mov    0x8(%ebp),%eax
  103bf2:	8b 58 0c             	mov    0xc(%eax),%ebx
  103bf5:	e8 38 ff ff ff       	call   103b32 <cpu_cur>
  103bfa:	39 c3                	cmp    %eax,%ebx
  103bfc:	75 09                	jne    103c07 <spinlock_holding+0x28>
  103bfe:	c7 45 f8 01 00 00 00 	movl   $0x1,0xfffffff8(%ebp)
  103c05:	eb 07                	jmp    103c0e <spinlock_holding+0x2f>
  103c07:	c7 45 f8 00 00 00 00 	movl   $0x0,0xfffffff8(%ebp)
  103c0e:	8b 45 f8             	mov    0xfffffff8(%ebp),%eax
}
  103c11:	83 c4 04             	add    $0x4,%esp
  103c14:	5b                   	pop    %ebx
  103c15:	5d                   	pop    %ebp
  103c16:	c3                   	ret    

00103c17 <spinlock_godeep>:

// Function that simply recurses to a specified depth.
// The useless return value and volatile parameter are
// so GCC doesn't collapse it via tail-call elimination.
int gcc_noinline
spinlock_godeep(volatile int depth, spinlock* lk)
{
  103c17:	55                   	push   %ebp
  103c18:	89 e5                	mov    %esp,%ebp
  103c1a:	83 ec 18             	sub    $0x18,%esp
	if (depth==0) { spinlock_acquire(lk); return 1; }
  103c1d:	8b 45 08             	mov    0x8(%ebp),%eax
  103c20:	85 c0                	test   %eax,%eax
  103c22:	75 14                	jne    103c38 <spinlock_godeep+0x21>
  103c24:	8b 45 0c             	mov    0xc(%ebp),%eax
  103c27:	89 04 24             	mov    %eax,(%esp)
  103c2a:	e8 5b fe ff ff       	call   103a8a <spinlock_acquire>
  103c2f:	c7 45 fc 01 00 00 00 	movl   $0x1,0xfffffffc(%ebp)
  103c36:	eb 22                	jmp    103c5a <spinlock_godeep+0x43>
	else return spinlock_godeep(depth-1, lk) * depth;
  103c38:	8b 45 08             	mov    0x8(%ebp),%eax
  103c3b:	8d 50 ff             	lea    0xffffffff(%eax),%edx
  103c3e:	8b 45 0c             	mov    0xc(%ebp),%eax
  103c41:	89 44 24 04          	mov    %eax,0x4(%esp)
  103c45:	89 14 24             	mov    %edx,(%esp)
  103c48:	e8 ca ff ff ff       	call   103c17 <spinlock_godeep>
  103c4d:	89 c2                	mov    %eax,%edx
  103c4f:	8b 45 08             	mov    0x8(%ebp),%eax
  103c52:	89 d1                	mov    %edx,%ecx
  103c54:	0f af c8             	imul   %eax,%ecx
  103c57:	89 4d fc             	mov    %ecx,0xfffffffc(%ebp)
  103c5a:	8b 45 fc             	mov    0xfffffffc(%ebp),%eax
}
  103c5d:	c9                   	leave  
  103c5e:	c3                   	ret    

00103c5f <spinlock_check>:

void spinlock_check()
{
  103c5f:	55                   	push   %ebp
  103c60:	89 e5                	mov    %esp,%ebp
  103c62:	53                   	push   %ebx
  103c63:	83 ec 44             	sub    $0x44,%esp
  103c66:	89 e0                	mov    %esp,%eax
  103c68:	89 45 d8             	mov    %eax,0xffffffd8(%ebp)
	const int NUMLOCKS=10;
  103c6b:	c7 45 e4 0a 00 00 00 	movl   $0xa,0xffffffe4(%ebp)
	const int NUMRUNS=5;
  103c72:	c7 45 e8 05 00 00 00 	movl   $0x5,0xffffffe8(%ebp)
	int i,j,run;
	const char* file = "spinlock_check";
  103c79:	c7 45 f8 f5 c8 10 00 	movl   $0x10c8f5,0xfffffff8(%ebp)
	spinlock locks[NUMLOCKS];
  103c80:	8b 45 e4             	mov    0xffffffe4(%ebp),%eax
  103c83:	8d 14 c5 00 00 00 00 	lea    0x0(,%eax,8),%edx
  103c8a:	8d 04 d5 00 00 00 00 	lea    0x0(,%edx,8),%eax
  103c91:	29 d0                	sub    %edx,%eax
  103c93:	83 c0 0f             	add    $0xf,%eax
  103c96:	83 c0 0f             	add    $0xf,%eax
  103c99:	c1 e8 04             	shr    $0x4,%eax
  103c9c:	c1 e0 04             	shl    $0x4,%eax
  103c9f:	29 c4                	sub    %eax,%esp
  103ca1:	8d 44 24 10          	lea    0x10(%esp),%eax
  103ca5:	89 45 d4             	mov    %eax,0xffffffd4(%ebp)
  103ca8:	8b 45 d4             	mov    0xffffffd4(%ebp),%eax
  103cab:	83 c0 0f             	add    $0xf,%eax
  103cae:	c1 e8 04             	shr    $0x4,%eax
  103cb1:	c1 e0 04             	shl    $0x4,%eax
  103cb4:	89 45 d4             	mov    %eax,0xffffffd4(%ebp)
  103cb7:	8b 45 d4             	mov    0xffffffd4(%ebp),%eax
  103cba:	89 45 e0             	mov    %eax,0xffffffe0(%ebp)

	// Initialize the locks
	for(i=0;i<NUMLOCKS;i++) spinlock_init_(&locks[i], file, 0);
  103cbd:	c7 45 ec 00 00 00 00 	movl   $0x0,0xffffffec(%ebp)
  103cc4:	eb 34                	jmp    103cfa <spinlock_check+0x9b>
  103cc6:	8b 4d e0             	mov    0xffffffe0(%ebp),%ecx
  103cc9:	8b 45 ec             	mov    0xffffffec(%ebp),%eax
  103ccc:	8d 14 c5 00 00 00 00 	lea    0x0(,%eax,8),%edx
  103cd3:	8d 04 d5 00 00 00 00 	lea    0x0(,%edx,8),%eax
  103cda:	29 d0                	sub    %edx,%eax
  103cdc:	8d 14 01             	lea    (%ecx,%eax,1),%edx
  103cdf:	c7 44 24 08 00 00 00 	movl   $0x0,0x8(%esp)
  103ce6:	00 
  103ce7:	8b 45 f8             	mov    0xfffffff8(%ebp),%eax
  103cea:	89 44 24 04          	mov    %eax,0x4(%esp)
  103cee:	89 14 24             	mov    %edx,(%esp)
  103cf1:	e8 6a fd ff ff       	call   103a60 <spinlock_init_>
  103cf6:	83 45 ec 01          	addl   $0x1,0xffffffec(%ebp)
  103cfa:	8b 45 ec             	mov    0xffffffec(%ebp),%eax
  103cfd:	3b 45 e4             	cmp    0xffffffe4(%ebp),%eax
  103d00:	7c c4                	jl     103cc6 <spinlock_check+0x67>
	// Make sure that all locks have CPU set to NULL initially
	for(i=0;i<NUMLOCKS;i++) assert(locks[i].cpu==NULL);
  103d02:	c7 45 ec 00 00 00 00 	movl   $0x0,0xffffffec(%ebp)
  103d09:	eb 49                	jmp    103d54 <spinlock_check+0xf5>
  103d0b:	8b 45 ec             	mov    0xffffffec(%ebp),%eax
  103d0e:	8b 4d e0             	mov    0xffffffe0(%ebp),%ecx
  103d11:	8d 14 c5 00 00 00 00 	lea    0x0(,%eax,8),%edx
  103d18:	8d 04 d5 00 00 00 00 	lea    0x0(,%edx,8),%eax
  103d1f:	29 d0                	sub    %edx,%eax
  103d21:	01 c8                	add    %ecx,%eax
  103d23:	83 c0 0c             	add    $0xc,%eax
  103d26:	8b 00                	mov    (%eax),%eax
  103d28:	85 c0                	test   %eax,%eax
  103d2a:	74 24                	je     103d50 <spinlock_check+0xf1>
  103d2c:	c7 44 24 0c 04 c9 10 	movl   $0x10c904,0xc(%esp)
  103d33:	00 
  103d34:	c7 44 24 08 a3 c8 10 	movl   $0x10c8a3,0x8(%esp)
  103d3b:	00 
  103d3c:	c7 44 24 04 53 00 00 	movl   $0x53,0x4(%esp)
  103d43:	00 
  103d44:	c7 04 24 7d c8 10 00 	movl   $0x10c87d,(%esp)
  103d4b:	e8 e8 cb ff ff       	call   100938 <debug_panic>
  103d50:	83 45 ec 01          	addl   $0x1,0xffffffec(%ebp)
  103d54:	8b 45 ec             	mov    0xffffffec(%ebp),%eax
  103d57:	3b 45 e4             	cmp    0xffffffe4(%ebp),%eax
  103d5a:	7c af                	jl     103d0b <spinlock_check+0xac>
	// Make sure that all locks have the correct debug info.
	for(i=0;i<NUMLOCKS;i++) assert(locks[i].file==file);
  103d5c:	c7 45 ec 00 00 00 00 	movl   $0x0,0xffffffec(%ebp)
  103d63:	eb 4a                	jmp    103daf <spinlock_check+0x150>
  103d65:	8b 45 ec             	mov    0xffffffec(%ebp),%eax
  103d68:	8b 4d e0             	mov    0xffffffe0(%ebp),%ecx
  103d6b:	8d 14 c5 00 00 00 00 	lea    0x0(,%eax,8),%edx
  103d72:	8d 04 d5 00 00 00 00 	lea    0x0(,%edx,8),%eax
  103d79:	29 d0                	sub    %edx,%eax
  103d7b:	01 c8                	add    %ecx,%eax
  103d7d:	83 c0 04             	add    $0x4,%eax
  103d80:	8b 00                	mov    (%eax),%eax
  103d82:	3b 45 f8             	cmp    0xfffffff8(%ebp),%eax
  103d85:	74 24                	je     103dab <spinlock_check+0x14c>
  103d87:	c7 44 24 0c 17 c9 10 	movl   $0x10c917,0xc(%esp)
  103d8e:	00 
  103d8f:	c7 44 24 08 a3 c8 10 	movl   $0x10c8a3,0x8(%esp)
  103d96:	00 
